ARM GAS  /var/folders/9y/n02fl3g16gnf7ppy14xghdy80000gn/T//ccscaFA7.s 			page 1


   1              		.cpu cortex-m7
   2              		.eabi_attribute 27, 1
   3              		.eabi_attribute 28, 1
   4              		.eabi_attribute 20, 1
   5              		.eabi_attribute 21, 1
   6              		.eabi_attribute 23, 3
   7              		.eabi_attribute 24, 1
   8              		.eabi_attribute 25, 1
   9              		.eabi_attribute 26, 1
  10              		.eabi_attribute 30, 1
  11              		.eabi_attribute 34, 1
  12              		.eabi_attribute 18, 4
  13              		.file	"main.c"
  14              		.text
  15              	.Ltext0:
  16              		.cfi_sections	.debug_frame
  17              		.section	.text.MX_GPIO_Init,"ax",%progbits
  18              		.align	1
  19              		.arch armv7e-m
  20              		.syntax unified
  21              		.thumb
  22              		.thumb_func
  23              		.fpu fpv5-sp-d16
  25              	MX_GPIO_Init:
  26              	.LFB146:
  27              		.file 1 "Core/Src/main.c"
   1:Core/Src/main.c **** /* USER CODE BEGIN Header */
   2:Core/Src/main.c **** /**
   3:Core/Src/main.c ****  ******************************************************************************
   4:Core/Src/main.c ****  * @file           : main.c
   5:Core/Src/main.c ****  * @brief          : Main program body
   6:Core/Src/main.c ****  ******************************************************************************
   7:Core/Src/main.c ****  * @attention
   8:Core/Src/main.c ****  *
   9:Core/Src/main.c ****  * Copyright (c) 2022 STMicroelectronics.
  10:Core/Src/main.c ****  * All rights reserved.
  11:Core/Src/main.c ****  *
  12:Core/Src/main.c ****  * This software is licensed under terms that can be found in the LICENSE file
  13:Core/Src/main.c ****  * in the root directory of this software component.
  14:Core/Src/main.c ****  * If no LICENSE file comes with this software, it is provided AS-IS.
  15:Core/Src/main.c ****  *
  16:Core/Src/main.c ****  ******************************************************************************
  17:Core/Src/main.c ****  */
  18:Core/Src/main.c **** /* USER CODE END Header */
  19:Core/Src/main.c **** /* Includes ------------------------------------------------------------------*/
  20:Core/Src/main.c **** #include "main.h"
  21:Core/Src/main.c **** 
  22:Core/Src/main.c **** /* Private includes ----------------------------------------------------------*/
  23:Core/Src/main.c **** /* USER CODE BEGIN Includes */
  24:Core/Src/main.c **** 
  25:Core/Src/main.c **** /* USER CODE END Includes */
  26:Core/Src/main.c **** 
  27:Core/Src/main.c **** /* Private typedef -----------------------------------------------------------*/
  28:Core/Src/main.c **** /* USER CODE BEGIN PTD */
  29:Core/Src/main.c **** 
  30:Core/Src/main.c **** /* USER CODE END PTD */
  31:Core/Src/main.c **** 
ARM GAS  /var/folders/9y/n02fl3g16gnf7ppy14xghdy80000gn/T//ccscaFA7.s 			page 2


  32:Core/Src/main.c **** /* Private define ------------------------------------------------------------*/
  33:Core/Src/main.c **** /* USER CODE BEGIN PD */
  34:Core/Src/main.c **** /* USER CODE END PD */
  35:Core/Src/main.c **** 
  36:Core/Src/main.c **** /* Private macro -------------------------------------------------------------*/
  37:Core/Src/main.c **** /* USER CODE BEGIN PM */
  38:Core/Src/main.c **** 
  39:Core/Src/main.c **** /* USER CODE END PM */
  40:Core/Src/main.c **** 
  41:Core/Src/main.c **** /* Private variables ---------------------------------------------------------*/
  42:Core/Src/main.c **** 
  43:Core/Src/main.c **** /* USER CODE BEGIN PV */
  44:Core/Src/main.c **** 
  45:Core/Src/main.c **** /* USER CODE END PV */
  46:Core/Src/main.c **** 
  47:Core/Src/main.c **** /* Private function prototypes -----------------------------------------------*/
  48:Core/Src/main.c **** void SystemClock_Config(void);
  49:Core/Src/main.c **** static void MPU_Config(void);
  50:Core/Src/main.c **** static void MX_GPIO_Init(void);
  51:Core/Src/main.c **** /* USER CODE BEGIN PFP */
  52:Core/Src/main.c **** void taskA(void);
  53:Core/Src/main.c **** void taskB(void);
  54:Core/Src/main.c **** void taskC(void);
  55:Core/Src/main.c **** void taskD(void);
  56:Core/Src/main.c **** /* USER CODE END PFP */
  57:Core/Src/main.c **** 
  58:Core/Src/main.c **** /* Private user code ---------------------------------------------------------*/
  59:Core/Src/main.c **** /* USER CODE BEGIN 0 */
  60:Core/Src/main.c **** 
  61:Core/Src/main.c **** /* USER CODE END 0 */
  62:Core/Src/main.c **** 
  63:Core/Src/main.c **** /**
  64:Core/Src/main.c ****  * @brief  The application entry point.
  65:Core/Src/main.c ****  * @retval int
  66:Core/Src/main.c ****  */
  67:Core/Src/main.c **** int main(void)
  68:Core/Src/main.c **** {
  69:Core/Src/main.c ****     /* USER CODE BEGIN 1 */
  70:Core/Src/main.c **** 
  71:Core/Src/main.c ****     /* USER CODE END 1 */
  72:Core/Src/main.c **** 
  73:Core/Src/main.c ****     /* MPU Configuration--------------------------------------------------------*/
  74:Core/Src/main.c ****     MPU_Config();
  75:Core/Src/main.c **** 
  76:Core/Src/main.c ****     /* MCU Configuration--------------------------------------------------------*/
  77:Core/Src/main.c **** 
  78:Core/Src/main.c ****     /* Reset of all peripherals, Initializes the Flash interface and the Systick. */
  79:Core/Src/main.c ****     HAL_Init();
  80:Core/Src/main.c **** 
  81:Core/Src/main.c ****     /* USER CODE BEGIN Init */
  82:Core/Src/main.c **** 
  83:Core/Src/main.c ****     /* USER CODE END Init */
  84:Core/Src/main.c **** 
  85:Core/Src/main.c ****     /* Configure the system clock */
  86:Core/Src/main.c ****     SystemClock_Config();
  87:Core/Src/main.c **** 
  88:Core/Src/main.c ****     /* USER CODE BEGIN SysInit */
ARM GAS  /var/folders/9y/n02fl3g16gnf7ppy14xghdy80000gn/T//ccscaFA7.s 			page 3


  89:Core/Src/main.c ****     SysTick_Config(SystemCoreClock / 1000);
  90:Core/Src/main.c ****     /* USER CODE END SysInit */
  91:Core/Src/main.c **** 
  92:Core/Src/main.c ****     /* Initialize all configured peripherals */
  93:Core/Src/main.c ****     MX_GPIO_Init();
  94:Core/Src/main.c ****     /* USER CODE BEGIN 2 */
  95:Core/Src/main.c ****     serialInit();
  96:Core/Src/main.c **** 
  97:Core/Src/main.c ****     Tasks *loopHead[8] = {NULL};
  98:Core/Src/main.c **** 
  99:Core/Src/main.c ****     append(&loopHead[FRAME_1HZ], taskA);
 100:Core/Src/main.c ****     append(&loopHead[FRAME_1HZ], taskC);
 101:Core/Src/main.c ****     append(&loopHead[FRAME_5HZ], taskB);
 102:Core/Src/main.c **** 
 103:Core/Src/main.c ****         /* USER CODE END 2 */
 104:Core/Src/main.c **** 
 105:Core/Src/main.c ****         /* Infinite loop */
 106:Core/Src/main.c ****         /* USER CODE BEGIN WHILE */
 107:Core/Src/main.c ****         while (1)
 108:Core/Src/main.c ****     {
 109:Core/Src/main.c ****         /* USER CODE END WHILE */
 110:Core/Src/main.c **** 
 111:Core/Src/main.c ****         /* USER CODE BEGIN 3 */
 112:Core/Src/main.c ****         run(loopHead);
 113:Core/Src/main.c ****     }
 114:Core/Src/main.c ****     /* USER CODE END 3 */
 115:Core/Src/main.c **** }
 116:Core/Src/main.c **** 
 117:Core/Src/main.c **** /**
 118:Core/Src/main.c ****  * @brief System Clock Configuration
 119:Core/Src/main.c ****  * @retval None
 120:Core/Src/main.c ****  */
 121:Core/Src/main.c **** void SystemClock_Config(void)
 122:Core/Src/main.c **** {
 123:Core/Src/main.c ****     RCC_OscInitTypeDef RCC_OscInitStruct = {0};
 124:Core/Src/main.c ****     RCC_ClkInitTypeDef RCC_ClkInitStruct = {0};
 125:Core/Src/main.c **** 
 126:Core/Src/main.c ****     /** Configure the main internal regulator output voltage
 127:Core/Src/main.c ****      */
 128:Core/Src/main.c ****     __HAL_RCC_PWR_CLK_ENABLE();
 129:Core/Src/main.c ****     __HAL_PWR_VOLTAGESCALING_CONFIG(PWR_REGULATOR_VOLTAGE_SCALE1);
 130:Core/Src/main.c **** 
 131:Core/Src/main.c ****     /** Initializes the RCC Oscillators according to the specified parameters
 132:Core/Src/main.c ****      * in the RCC_OscInitTypeDef structure.
 133:Core/Src/main.c ****      */
 134:Core/Src/main.c ****     RCC_OscInitStruct.OscillatorType = RCC_OSCILLATORTYPE_HSI;
 135:Core/Src/main.c ****     RCC_OscInitStruct.HSIState = RCC_HSI_ON;
 136:Core/Src/main.c ****     RCC_OscInitStruct.HSICalibrationValue = RCC_HSICALIBRATION_DEFAULT;
 137:Core/Src/main.c ****     RCC_OscInitStruct.PLL.PLLState = RCC_PLL_ON;
 138:Core/Src/main.c ****     RCC_OscInitStruct.PLL.PLLSource = RCC_PLLSOURCE_HSI;
 139:Core/Src/main.c ****     RCC_OscInitStruct.PLL.PLLM = 8;
 140:Core/Src/main.c ****     RCC_OscInitStruct.PLL.PLLN = 216;
 141:Core/Src/main.c ****     RCC_OscInitStruct.PLL.PLLP = RCC_PLLP_DIV2;
 142:Core/Src/main.c ****     RCC_OscInitStruct.PLL.PLLQ = 2;
 143:Core/Src/main.c ****     if (HAL_RCC_OscConfig(&RCC_OscInitStruct) != HAL_OK)
 144:Core/Src/main.c ****     {
 145:Core/Src/main.c ****         Error_Handler();
ARM GAS  /var/folders/9y/n02fl3g16gnf7ppy14xghdy80000gn/T//ccscaFA7.s 			page 4


 146:Core/Src/main.c ****     }
 147:Core/Src/main.c **** 
 148:Core/Src/main.c ****     /** Activate the Over-Drive mode
 149:Core/Src/main.c ****      */
 150:Core/Src/main.c ****     if (HAL_PWREx_EnableOverDrive() != HAL_OK)
 151:Core/Src/main.c ****     {
 152:Core/Src/main.c ****         Error_Handler();
 153:Core/Src/main.c ****     }
 154:Core/Src/main.c **** 
 155:Core/Src/main.c ****     /** Initializes the CPU, AHB and APB buses clocks
 156:Core/Src/main.c ****      */
 157:Core/Src/main.c ****     RCC_ClkInitStruct.ClockType = RCC_CLOCKTYPE_HCLK | RCC_CLOCKTYPE_SYSCLK | RCC_CLOCKTYPE_PCLK1 |
 158:Core/Src/main.c ****     RCC_ClkInitStruct.SYSCLKSource = RCC_SYSCLKSOURCE_PLLCLK;
 159:Core/Src/main.c ****     RCC_ClkInitStruct.AHBCLKDivider = RCC_SYSCLK_DIV1;
 160:Core/Src/main.c ****     RCC_ClkInitStruct.APB1CLKDivider = RCC_HCLK_DIV4;
 161:Core/Src/main.c ****     RCC_ClkInitStruct.APB2CLKDivider = RCC_HCLK_DIV2;
 162:Core/Src/main.c **** 
 163:Core/Src/main.c ****     if (HAL_RCC_ClockConfig(&RCC_ClkInitStruct, FLASH_LATENCY_7) != HAL_OK)
 164:Core/Src/main.c ****     {
 165:Core/Src/main.c ****         Error_Handler();
 166:Core/Src/main.c ****     }
 167:Core/Src/main.c **** }
 168:Core/Src/main.c **** 
 169:Core/Src/main.c **** /**
 170:Core/Src/main.c ****  * @brief GPIO Initialization Function
 171:Core/Src/main.c ****  * @param None
 172:Core/Src/main.c ****  * @retval None
 173:Core/Src/main.c ****  */
 174:Core/Src/main.c **** static void MX_GPIO_Init(void)
 175:Core/Src/main.c **** {
  28              		.loc 1 175 1 view -0
  29              		.cfi_startproc
  30              		@ args = 0, pretend = 0, frame = 8
  31              		@ frame_needed = 0, uses_anonymous_args = 0
  32              		@ link register save eliminated.
  33 0000 82B0     		sub	sp, sp, #8
  34              		.cfi_def_cfa_offset 8
 176:Core/Src/main.c **** 
 177:Core/Src/main.c ****     /* GPIO Ports Clock Enable */
 178:Core/Src/main.c ****     __HAL_RCC_GPIOH_CLK_ENABLE();
  35              		.loc 1 178 5 view .LVU1
  36              	.LBB10:
  37              		.loc 1 178 5 view .LVU2
  38              		.loc 1 178 5 view .LVU3
  39 0002 064B     		ldr	r3, .L3
  40 0004 1A6B     		ldr	r2, [r3, #48]
  41 0006 42F08002 		orr	r2, r2, #128
  42 000a 1A63     		str	r2, [r3, #48]
  43              		.loc 1 178 5 view .LVU4
  44 000c 1B6B     		ldr	r3, [r3, #48]
  45 000e 03F08003 		and	r3, r3, #128
  46 0012 0193     		str	r3, [sp, #4]
  47              		.loc 1 178 5 view .LVU5
  48 0014 019B     		ldr	r3, [sp, #4]
  49              	.LBE10:
  50              		.loc 1 178 5 view .LVU6
 179:Core/Src/main.c **** }
ARM GAS  /var/folders/9y/n02fl3g16gnf7ppy14xghdy80000gn/T//ccscaFA7.s 			page 5


  51              		.loc 1 179 1 is_stmt 0 view .LVU7
  52 0016 02B0     		add	sp, sp, #8
  53              		.cfi_def_cfa_offset 0
  54              		@ sp needed
  55 0018 7047     		bx	lr
  56              	.L4:
  57 001a 00BF     		.align	2
  58              	.L3:
  59 001c 00380240 		.word	1073887232
  60              		.cfi_endproc
  61              	.LFE146:
  63              		.section	.text.MPU_Config,"ax",%progbits
  64              		.align	1
  65              		.syntax unified
  66              		.thumb
  67              		.thumb_func
  68              		.fpu fpv5-sp-d16
  70              	MPU_Config:
  71              	.LFB151:
 180:Core/Src/main.c **** 
 181:Core/Src/main.c **** /* USER CODE BEGIN 4 */
 182:Core/Src/main.c **** void taskA(void)
 183:Core/Src/main.c **** {
 184:Core/Src/main.c ****     printf("O\n");
 185:Core/Src/main.c **** }
 186:Core/Src/main.c **** 
 187:Core/Src/main.c **** void taskB(void)
 188:Core/Src/main.c **** {
 189:Core/Src/main.c ****     printf("OOOOO\n");
 190:Core/Src/main.c **** }
 191:Core/Src/main.c **** 
 192:Core/Src/main.c **** void taskC(void)
 193:Core/Src/main.c **** {
 194:Core/Src/main.c ****     printf("OOOOOOOOOO\n");
 195:Core/Src/main.c **** }
 196:Core/Src/main.c **** 
 197:Core/Src/main.c **** void taskD(void)
 198:Core/Src/main.c **** {
 199:Core/Src/main.c ****     printf("New Cycle\n");
 200:Core/Src/main.c **** }
 201:Core/Src/main.c **** /* USER CODE END 4 */
 202:Core/Src/main.c **** 
 203:Core/Src/main.c **** /* MPU Configuration */
 204:Core/Src/main.c **** 
 205:Core/Src/main.c **** void MPU_Config(void)
 206:Core/Src/main.c **** {
  72              		.loc 1 206 1 is_stmt 1 view -0
  73              		.cfi_startproc
  74              		@ args = 0, pretend = 0, frame = 16
  75              		@ frame_needed = 0, uses_anonymous_args = 0
  76 0000 10B5     		push	{r4, lr}
  77              		.cfi_def_cfa_offset 8
  78              		.cfi_offset 4, -8
  79              		.cfi_offset 14, -4
  80 0002 84B0     		sub	sp, sp, #16
  81              		.cfi_def_cfa_offset 24
 207:Core/Src/main.c ****     MPU_Region_InitTypeDef MPU_InitStruct = {0};
ARM GAS  /var/folders/9y/n02fl3g16gnf7ppy14xghdy80000gn/T//ccscaFA7.s 			page 6


  82              		.loc 1 207 5 view .LVU9
  83              		.loc 1 207 28 is_stmt 0 view .LVU10
  84 0004 0024     		movs	r4, #0
  85 0006 0094     		str	r4, [sp]
  86 0008 0194     		str	r4, [sp, #4]
  87 000a 0294     		str	r4, [sp, #8]
  88 000c 0394     		str	r4, [sp, #12]
 208:Core/Src/main.c **** 
 209:Core/Src/main.c ****     /* Disables the MPU */
 210:Core/Src/main.c ****     HAL_MPU_Disable();
  89              		.loc 1 210 5 is_stmt 1 view .LVU11
  90 000e FFF7FEFF 		bl	HAL_MPU_Disable
  91              	.LVL0:
 211:Core/Src/main.c **** 
 212:Core/Src/main.c ****     /** Initializes and configures the Region and the memory to be protected
 213:Core/Src/main.c ****      */
 214:Core/Src/main.c ****     MPU_InitStruct.Enable = MPU_REGION_ENABLE;
  92              		.loc 1 214 5 view .LVU12
  93              		.loc 1 214 27 is_stmt 0 view .LVU13
  94 0012 0123     		movs	r3, #1
  95 0014 8DF80030 		strb	r3, [sp]
 215:Core/Src/main.c ****     MPU_InitStruct.Number = MPU_REGION_NUMBER0;
  96              		.loc 1 215 5 is_stmt 1 view .LVU14
  97              		.loc 1 215 27 is_stmt 0 view .LVU15
  98 0018 8DF80140 		strb	r4, [sp, #1]
 216:Core/Src/main.c ****     MPU_InitStruct.BaseAddress = 0x0;
  99              		.loc 1 216 5 is_stmt 1 view .LVU16
 100              		.loc 1 216 32 is_stmt 0 view .LVU17
 101 001c 0194     		str	r4, [sp, #4]
 217:Core/Src/main.c ****     MPU_InitStruct.Size = MPU_REGION_SIZE_4GB;
 102              		.loc 1 217 5 is_stmt 1 view .LVU18
 103              		.loc 1 217 25 is_stmt 0 view .LVU19
 104 001e 1F22     		movs	r2, #31
 105 0020 8DF80820 		strb	r2, [sp, #8]
 218:Core/Src/main.c ****     MPU_InitStruct.SubRegionDisable = 0x87;
 106              		.loc 1 218 5 is_stmt 1 view .LVU20
 107              		.loc 1 218 37 is_stmt 0 view .LVU21
 108 0024 8722     		movs	r2, #135
 109 0026 8DF80920 		strb	r2, [sp, #9]
 219:Core/Src/main.c ****     MPU_InitStruct.TypeExtField = MPU_TEX_LEVEL0;
 110              		.loc 1 219 5 is_stmt 1 view .LVU22
 111              		.loc 1 219 33 is_stmt 0 view .LVU23
 112 002a 8DF80A40 		strb	r4, [sp, #10]
 220:Core/Src/main.c ****     MPU_InitStruct.AccessPermission = MPU_REGION_NO_ACCESS;
 113              		.loc 1 220 5 is_stmt 1 view .LVU24
 114              		.loc 1 220 37 is_stmt 0 view .LVU25
 115 002e 8DF80B40 		strb	r4, [sp, #11]
 221:Core/Src/main.c ****     MPU_InitStruct.DisableExec = MPU_INSTRUCTION_ACCESS_DISABLE;
 116              		.loc 1 221 5 is_stmt 1 view .LVU26
 117              		.loc 1 221 32 is_stmt 0 view .LVU27
 118 0032 8DF80C30 		strb	r3, [sp, #12]
 222:Core/Src/main.c ****     MPU_InitStruct.IsShareable = MPU_ACCESS_SHAREABLE;
 119              		.loc 1 222 5 is_stmt 1 view .LVU28
 120              		.loc 1 222 32 is_stmt 0 view .LVU29
 121 0036 8DF80D30 		strb	r3, [sp, #13]
 223:Core/Src/main.c ****     MPU_InitStruct.IsCacheable = MPU_ACCESS_NOT_CACHEABLE;
 122              		.loc 1 223 5 is_stmt 1 view .LVU30
ARM GAS  /var/folders/9y/n02fl3g16gnf7ppy14xghdy80000gn/T//ccscaFA7.s 			page 7


 123              		.loc 1 223 32 is_stmt 0 view .LVU31
 124 003a 8DF80E40 		strb	r4, [sp, #14]
 224:Core/Src/main.c ****     MPU_InitStruct.IsBufferable = MPU_ACCESS_NOT_BUFFERABLE;
 125              		.loc 1 224 5 is_stmt 1 view .LVU32
 126              		.loc 1 224 33 is_stmt 0 view .LVU33
 127 003e 8DF80F40 		strb	r4, [sp, #15]
 225:Core/Src/main.c **** 
 226:Core/Src/main.c ****     HAL_MPU_ConfigRegion(&MPU_InitStruct);
 128              		.loc 1 226 5 is_stmt 1 view .LVU34
 129 0042 6846     		mov	r0, sp
 130 0044 FFF7FEFF 		bl	HAL_MPU_ConfigRegion
 131              	.LVL1:
 227:Core/Src/main.c ****     /* Enables the MPU */
 228:Core/Src/main.c ****     HAL_MPU_Enable(MPU_PRIVILEGED_DEFAULT);
 132              		.loc 1 228 5 view .LVU35
 133 0048 0420     		movs	r0, #4
 134 004a FFF7FEFF 		bl	HAL_MPU_Enable
 135              	.LVL2:
 229:Core/Src/main.c **** }
 136              		.loc 1 229 1 is_stmt 0 view .LVU36
 137 004e 04B0     		add	sp, sp, #16
 138              		.cfi_def_cfa_offset 8
 139              		@ sp needed
 140 0050 10BD     		pop	{r4, pc}
 141              		.cfi_endproc
 142              	.LFE151:
 144              		.section	.rodata.taskA.str1.4,"aMS",%progbits,1
 145              		.align	2
 146              	.LC0:
 147 0000 4F00     		.ascii	"O\000"
 148              		.section	.text.taskA,"ax",%progbits
 149              		.align	1
 150              		.global	taskA
 151              		.syntax unified
 152              		.thumb
 153              		.thumb_func
 154              		.fpu fpv5-sp-d16
 156              	taskA:
 157              	.LFB147:
 183:Core/Src/main.c ****     printf("O\n");
 158              		.loc 1 183 1 is_stmt 1 view -0
 159              		.cfi_startproc
 160              		@ args = 0, pretend = 0, frame = 0
 161              		@ frame_needed = 0, uses_anonymous_args = 0
 162 0000 08B5     		push	{r3, lr}
 163              		.cfi_def_cfa_offset 8
 164              		.cfi_offset 3, -8
 165              		.cfi_offset 14, -4
 184:Core/Src/main.c **** }
 166              		.loc 1 184 5 view .LVU38
 167 0002 0248     		ldr	r0, .L9
 168 0004 FFF7FEFF 		bl	puts
 169              	.LVL3:
 185:Core/Src/main.c **** 
 170              		.loc 1 185 1 is_stmt 0 view .LVU39
 171 0008 08BD     		pop	{r3, pc}
 172              	.L10:
ARM GAS  /var/folders/9y/n02fl3g16gnf7ppy14xghdy80000gn/T//ccscaFA7.s 			page 8


 173 000a 00BF     		.align	2
 174              	.L9:
 175 000c 00000000 		.word	.LC0
 176              		.cfi_endproc
 177              	.LFE147:
 179              		.section	.rodata.taskB.str1.4,"aMS",%progbits,1
 180              		.align	2
 181              	.LC1:
 182 0000 4F4F4F4F 		.ascii	"OOOOO\000"
 182      4F00
 183              		.section	.text.taskB,"ax",%progbits
 184              		.align	1
 185              		.global	taskB
 186              		.syntax unified
 187              		.thumb
 188              		.thumb_func
 189              		.fpu fpv5-sp-d16
 191              	taskB:
 192              	.LFB148:
 188:Core/Src/main.c ****     printf("OOOOO\n");
 193              		.loc 1 188 1 is_stmt 1 view -0
 194              		.cfi_startproc
 195              		@ args = 0, pretend = 0, frame = 0
 196              		@ frame_needed = 0, uses_anonymous_args = 0
 197 0000 08B5     		push	{r3, lr}
 198              		.cfi_def_cfa_offset 8
 199              		.cfi_offset 3, -8
 200              		.cfi_offset 14, -4
 189:Core/Src/main.c **** }
 201              		.loc 1 189 5 view .LVU41
 202 0002 0248     		ldr	r0, .L13
 203 0004 FFF7FEFF 		bl	puts
 204              	.LVL4:
 190:Core/Src/main.c **** 
 205              		.loc 1 190 1 is_stmt 0 view .LVU42
 206 0008 08BD     		pop	{r3, pc}
 207              	.L14:
 208 000a 00BF     		.align	2
 209              	.L13:
 210 000c 00000000 		.word	.LC1
 211              		.cfi_endproc
 212              	.LFE148:
 214              		.section	.rodata.taskC.str1.4,"aMS",%progbits,1
 215              		.align	2
 216              	.LC2:
 217 0000 4F4F4F4F 		.ascii	"OOOOOOOOOO\000"
 217      4F4F4F4F 
 217      4F4F00
 218              		.section	.text.taskC,"ax",%progbits
 219              		.align	1
 220              		.global	taskC
 221              		.syntax unified
 222              		.thumb
 223              		.thumb_func
 224              		.fpu fpv5-sp-d16
 226              	taskC:
 227              	.LFB149:
ARM GAS  /var/folders/9y/n02fl3g16gnf7ppy14xghdy80000gn/T//ccscaFA7.s 			page 9


 193:Core/Src/main.c ****     printf("OOOOOOOOOO\n");
 228              		.loc 1 193 1 is_stmt 1 view -0
 229              		.cfi_startproc
 230              		@ args = 0, pretend = 0, frame = 0
 231              		@ frame_needed = 0, uses_anonymous_args = 0
 232 0000 08B5     		push	{r3, lr}
 233              		.cfi_def_cfa_offset 8
 234              		.cfi_offset 3, -8
 235              		.cfi_offset 14, -4
 194:Core/Src/main.c **** }
 236              		.loc 1 194 5 view .LVU44
 237 0002 0248     		ldr	r0, .L17
 238 0004 FFF7FEFF 		bl	puts
 239              	.LVL5:
 195:Core/Src/main.c **** 
 240              		.loc 1 195 1 is_stmt 0 view .LVU45
 241 0008 08BD     		pop	{r3, pc}
 242              	.L18:
 243 000a 00BF     		.align	2
 244              	.L17:
 245 000c 00000000 		.word	.LC2
 246              		.cfi_endproc
 247              	.LFE149:
 249              		.section	.rodata.taskD.str1.4,"aMS",%progbits,1
 250              		.align	2
 251              	.LC3:
 252 0000 4E657720 		.ascii	"New Cycle\000"
 252      4379636C 
 252      6500
 253              		.section	.text.taskD,"ax",%progbits
 254              		.align	1
 255              		.global	taskD
 256              		.syntax unified
 257              		.thumb
 258              		.thumb_func
 259              		.fpu fpv5-sp-d16
 261              	taskD:
 262              	.LFB150:
 198:Core/Src/main.c ****     printf("New Cycle\n");
 263              		.loc 1 198 1 is_stmt 1 view -0
 264              		.cfi_startproc
 265              		@ args = 0, pretend = 0, frame = 0
 266              		@ frame_needed = 0, uses_anonymous_args = 0
 267 0000 08B5     		push	{r3, lr}
 268              		.cfi_def_cfa_offset 8
 269              		.cfi_offset 3, -8
 270              		.cfi_offset 14, -4
 199:Core/Src/main.c **** }
 271              		.loc 1 199 5 view .LVU47
 272 0002 0248     		ldr	r0, .L21
 273 0004 FFF7FEFF 		bl	puts
 274              	.LVL6:
 200:Core/Src/main.c **** /* USER CODE END 4 */
 275              		.loc 1 200 1 is_stmt 0 view .LVU48
 276 0008 08BD     		pop	{r3, pc}
 277              	.L22:
 278 000a 00BF     		.align	2
ARM GAS  /var/folders/9y/n02fl3g16gnf7ppy14xghdy80000gn/T//ccscaFA7.s 			page 10


 279              	.L21:
 280 000c 00000000 		.word	.LC3
 281              		.cfi_endproc
 282              	.LFE150:
 284              		.section	.text.Error_Handler,"ax",%progbits
 285              		.align	1
 286              		.global	Error_Handler
 287              		.syntax unified
 288              		.thumb
 289              		.thumb_func
 290              		.fpu fpv5-sp-d16
 292              	Error_Handler:
 293              	.LFB152:
 230:Core/Src/main.c **** 
 231:Core/Src/main.c **** /**
 232:Core/Src/main.c ****  * @brief  This function is executed in case of error occurrence.
 233:Core/Src/main.c ****  * @retval None
 234:Core/Src/main.c ****  */
 235:Core/Src/main.c **** void Error_Handler(void)
 236:Core/Src/main.c **** {
 294              		.loc 1 236 1 is_stmt 1 view -0
 295              		.cfi_startproc
 296              		@ Volatile: function does not return.
 297              		@ args = 0, pretend = 0, frame = 0
 298              		@ frame_needed = 0, uses_anonymous_args = 0
 299              		@ link register save eliminated.
 237:Core/Src/main.c ****     /* USER CODE BEGIN Error_Handler_Debug */
 238:Core/Src/main.c ****     /* User can add his own implementation to report the HAL error return state */
 239:Core/Src/main.c ****     __disable_irq();
 300              		.loc 1 239 5 view .LVU50
 301              	.LBB11:
 302              	.LBI11:
 303              		.file 2 "Drivers/CMSIS/Include/cmsis_gcc.h"
   1:Drivers/CMSIS/Include/cmsis_gcc.h **** /**************************************************************************//**
   2:Drivers/CMSIS/Include/cmsis_gcc.h ****  * @file     cmsis_gcc.h
   3:Drivers/CMSIS/Include/cmsis_gcc.h ****  * @brief    CMSIS compiler GCC header file
   4:Drivers/CMSIS/Include/cmsis_gcc.h ****  * @version  V5.0.4
   5:Drivers/CMSIS/Include/cmsis_gcc.h ****  * @date     09. April 2018
   6:Drivers/CMSIS/Include/cmsis_gcc.h ****  ******************************************************************************/
   7:Drivers/CMSIS/Include/cmsis_gcc.h **** /*
   8:Drivers/CMSIS/Include/cmsis_gcc.h ****  * Copyright (c) 2009-2018 Arm Limited. All rights reserved.
   9:Drivers/CMSIS/Include/cmsis_gcc.h ****  *
  10:Drivers/CMSIS/Include/cmsis_gcc.h ****  * SPDX-License-Identifier: Apache-2.0
  11:Drivers/CMSIS/Include/cmsis_gcc.h ****  *
  12:Drivers/CMSIS/Include/cmsis_gcc.h ****  * Licensed under the Apache License, Version 2.0 (the License); you may
  13:Drivers/CMSIS/Include/cmsis_gcc.h ****  * not use this file except in compliance with the License.
  14:Drivers/CMSIS/Include/cmsis_gcc.h ****  * You may obtain a copy of the License at
  15:Drivers/CMSIS/Include/cmsis_gcc.h ****  *
  16:Drivers/CMSIS/Include/cmsis_gcc.h ****  * www.apache.org/licenses/LICENSE-2.0
  17:Drivers/CMSIS/Include/cmsis_gcc.h ****  *
  18:Drivers/CMSIS/Include/cmsis_gcc.h ****  * Unless required by applicable law or agreed to in writing, software
  19:Drivers/CMSIS/Include/cmsis_gcc.h ****  * distributed under the License is distributed on an AS IS BASIS, WITHOUT
  20:Drivers/CMSIS/Include/cmsis_gcc.h ****  * WARRANTIES OR CONDITIONS OF ANY KIND, either express or implied.
  21:Drivers/CMSIS/Include/cmsis_gcc.h ****  * See the License for the specific language governing permissions and
  22:Drivers/CMSIS/Include/cmsis_gcc.h ****  * limitations under the License.
  23:Drivers/CMSIS/Include/cmsis_gcc.h ****  */
  24:Drivers/CMSIS/Include/cmsis_gcc.h **** 
ARM GAS  /var/folders/9y/n02fl3g16gnf7ppy14xghdy80000gn/T//ccscaFA7.s 			page 11


  25:Drivers/CMSIS/Include/cmsis_gcc.h **** #ifndef __CMSIS_GCC_H
  26:Drivers/CMSIS/Include/cmsis_gcc.h **** #define __CMSIS_GCC_H
  27:Drivers/CMSIS/Include/cmsis_gcc.h **** 
  28:Drivers/CMSIS/Include/cmsis_gcc.h **** /* ignore some GCC warnings */
  29:Drivers/CMSIS/Include/cmsis_gcc.h **** #pragma GCC diagnostic push
  30:Drivers/CMSIS/Include/cmsis_gcc.h **** #pragma GCC diagnostic ignored "-Wsign-conversion"
  31:Drivers/CMSIS/Include/cmsis_gcc.h **** #pragma GCC diagnostic ignored "-Wconversion"
  32:Drivers/CMSIS/Include/cmsis_gcc.h **** #pragma GCC diagnostic ignored "-Wunused-parameter"
  33:Drivers/CMSIS/Include/cmsis_gcc.h **** 
  34:Drivers/CMSIS/Include/cmsis_gcc.h **** /* Fallback for __has_builtin */
  35:Drivers/CMSIS/Include/cmsis_gcc.h **** #ifndef __has_builtin
  36:Drivers/CMSIS/Include/cmsis_gcc.h ****   #define __has_builtin(x) (0)
  37:Drivers/CMSIS/Include/cmsis_gcc.h **** #endif
  38:Drivers/CMSIS/Include/cmsis_gcc.h **** 
  39:Drivers/CMSIS/Include/cmsis_gcc.h **** /* CMSIS compiler specific defines */
  40:Drivers/CMSIS/Include/cmsis_gcc.h **** #ifndef   __ASM
  41:Drivers/CMSIS/Include/cmsis_gcc.h ****   #define __ASM                                  __asm
  42:Drivers/CMSIS/Include/cmsis_gcc.h **** #endif
  43:Drivers/CMSIS/Include/cmsis_gcc.h **** #ifndef   __INLINE
  44:Drivers/CMSIS/Include/cmsis_gcc.h ****   #define __INLINE                               inline
  45:Drivers/CMSIS/Include/cmsis_gcc.h **** #endif
  46:Drivers/CMSIS/Include/cmsis_gcc.h **** #ifndef   __STATIC_INLINE
  47:Drivers/CMSIS/Include/cmsis_gcc.h ****   #define __STATIC_INLINE                        static inline
  48:Drivers/CMSIS/Include/cmsis_gcc.h **** #endif
  49:Drivers/CMSIS/Include/cmsis_gcc.h **** #ifndef   __STATIC_FORCEINLINE                 
  50:Drivers/CMSIS/Include/cmsis_gcc.h ****   #define __STATIC_FORCEINLINE                   __attribute__((always_inline)) static inline
  51:Drivers/CMSIS/Include/cmsis_gcc.h **** #endif                                           
  52:Drivers/CMSIS/Include/cmsis_gcc.h **** #ifndef   __NO_RETURN
  53:Drivers/CMSIS/Include/cmsis_gcc.h ****   #define __NO_RETURN                            __attribute__((__noreturn__))
  54:Drivers/CMSIS/Include/cmsis_gcc.h **** #endif
  55:Drivers/CMSIS/Include/cmsis_gcc.h **** #ifndef   __USED
  56:Drivers/CMSIS/Include/cmsis_gcc.h ****   #define __USED                                 __attribute__((used))
  57:Drivers/CMSIS/Include/cmsis_gcc.h **** #endif
  58:Drivers/CMSIS/Include/cmsis_gcc.h **** #ifndef   __WEAK
  59:Drivers/CMSIS/Include/cmsis_gcc.h ****   #define __WEAK                                 __attribute__((weak))
  60:Drivers/CMSIS/Include/cmsis_gcc.h **** #endif
  61:Drivers/CMSIS/Include/cmsis_gcc.h **** #ifndef   __PACKED
  62:Drivers/CMSIS/Include/cmsis_gcc.h ****   #define __PACKED                               __attribute__((packed, aligned(1)))
  63:Drivers/CMSIS/Include/cmsis_gcc.h **** #endif
  64:Drivers/CMSIS/Include/cmsis_gcc.h **** #ifndef   __PACKED_STRUCT
  65:Drivers/CMSIS/Include/cmsis_gcc.h ****   #define __PACKED_STRUCT                        struct __attribute__((packed, aligned(1)))
  66:Drivers/CMSIS/Include/cmsis_gcc.h **** #endif
  67:Drivers/CMSIS/Include/cmsis_gcc.h **** #ifndef   __PACKED_UNION
  68:Drivers/CMSIS/Include/cmsis_gcc.h ****   #define __PACKED_UNION                         union __attribute__((packed, aligned(1)))
  69:Drivers/CMSIS/Include/cmsis_gcc.h **** #endif
  70:Drivers/CMSIS/Include/cmsis_gcc.h **** #ifndef   __UNALIGNED_UINT32        /* deprecated */
  71:Drivers/CMSIS/Include/cmsis_gcc.h ****   #pragma GCC diagnostic push
  72:Drivers/CMSIS/Include/cmsis_gcc.h ****   #pragma GCC diagnostic ignored "-Wpacked"
  73:Drivers/CMSIS/Include/cmsis_gcc.h ****   #pragma GCC diagnostic ignored "-Wattributes"
  74:Drivers/CMSIS/Include/cmsis_gcc.h ****   struct __attribute__((packed)) T_UINT32 { uint32_t v; };
  75:Drivers/CMSIS/Include/cmsis_gcc.h ****   #pragma GCC diagnostic pop
  76:Drivers/CMSIS/Include/cmsis_gcc.h ****   #define __UNALIGNED_UINT32(x)                  (((struct T_UINT32 *)(x))->v)
  77:Drivers/CMSIS/Include/cmsis_gcc.h **** #endif
  78:Drivers/CMSIS/Include/cmsis_gcc.h **** #ifndef   __UNALIGNED_UINT16_WRITE
  79:Drivers/CMSIS/Include/cmsis_gcc.h ****   #pragma GCC diagnostic push
  80:Drivers/CMSIS/Include/cmsis_gcc.h ****   #pragma GCC diagnostic ignored "-Wpacked"
  81:Drivers/CMSIS/Include/cmsis_gcc.h ****   #pragma GCC diagnostic ignored "-Wattributes"
ARM GAS  /var/folders/9y/n02fl3g16gnf7ppy14xghdy80000gn/T//ccscaFA7.s 			page 12


  82:Drivers/CMSIS/Include/cmsis_gcc.h ****   __PACKED_STRUCT T_UINT16_WRITE { uint16_t v; };
  83:Drivers/CMSIS/Include/cmsis_gcc.h ****   #pragma GCC diagnostic pop
  84:Drivers/CMSIS/Include/cmsis_gcc.h ****   #define __UNALIGNED_UINT16_WRITE(addr, val)    (void)((((struct T_UINT16_WRITE *)(void *)(addr))-
  85:Drivers/CMSIS/Include/cmsis_gcc.h **** #endif
  86:Drivers/CMSIS/Include/cmsis_gcc.h **** #ifndef   __UNALIGNED_UINT16_READ
  87:Drivers/CMSIS/Include/cmsis_gcc.h ****   #pragma GCC diagnostic push
  88:Drivers/CMSIS/Include/cmsis_gcc.h ****   #pragma GCC diagnostic ignored "-Wpacked"
  89:Drivers/CMSIS/Include/cmsis_gcc.h ****   #pragma GCC diagnostic ignored "-Wattributes"
  90:Drivers/CMSIS/Include/cmsis_gcc.h ****   __PACKED_STRUCT T_UINT16_READ { uint16_t v; };
  91:Drivers/CMSIS/Include/cmsis_gcc.h ****   #pragma GCC diagnostic pop
  92:Drivers/CMSIS/Include/cmsis_gcc.h ****   #define __UNALIGNED_UINT16_READ(addr)          (((const struct T_UINT16_READ *)(const void *)(add
  93:Drivers/CMSIS/Include/cmsis_gcc.h **** #endif
  94:Drivers/CMSIS/Include/cmsis_gcc.h **** #ifndef   __UNALIGNED_UINT32_WRITE
  95:Drivers/CMSIS/Include/cmsis_gcc.h ****   #pragma GCC diagnostic push
  96:Drivers/CMSIS/Include/cmsis_gcc.h ****   #pragma GCC diagnostic ignored "-Wpacked"
  97:Drivers/CMSIS/Include/cmsis_gcc.h ****   #pragma GCC diagnostic ignored "-Wattributes"
  98:Drivers/CMSIS/Include/cmsis_gcc.h ****   __PACKED_STRUCT T_UINT32_WRITE { uint32_t v; };
  99:Drivers/CMSIS/Include/cmsis_gcc.h ****   #pragma GCC diagnostic pop
 100:Drivers/CMSIS/Include/cmsis_gcc.h ****   #define __UNALIGNED_UINT32_WRITE(addr, val)    (void)((((struct T_UINT32_WRITE *)(void *)(addr))-
 101:Drivers/CMSIS/Include/cmsis_gcc.h **** #endif
 102:Drivers/CMSIS/Include/cmsis_gcc.h **** #ifndef   __UNALIGNED_UINT32_READ
 103:Drivers/CMSIS/Include/cmsis_gcc.h ****   #pragma GCC diagnostic push
 104:Drivers/CMSIS/Include/cmsis_gcc.h ****   #pragma GCC diagnostic ignored "-Wpacked"
 105:Drivers/CMSIS/Include/cmsis_gcc.h ****   #pragma GCC diagnostic ignored "-Wattributes"
 106:Drivers/CMSIS/Include/cmsis_gcc.h ****   __PACKED_STRUCT T_UINT32_READ { uint32_t v; };
 107:Drivers/CMSIS/Include/cmsis_gcc.h ****   #pragma GCC diagnostic pop
 108:Drivers/CMSIS/Include/cmsis_gcc.h ****   #define __UNALIGNED_UINT32_READ(addr)          (((const struct T_UINT32_READ *)(const void *)(add
 109:Drivers/CMSIS/Include/cmsis_gcc.h **** #endif
 110:Drivers/CMSIS/Include/cmsis_gcc.h **** #ifndef   __ALIGNED
 111:Drivers/CMSIS/Include/cmsis_gcc.h ****   #define __ALIGNED(x)                           __attribute__((aligned(x)))
 112:Drivers/CMSIS/Include/cmsis_gcc.h **** #endif
 113:Drivers/CMSIS/Include/cmsis_gcc.h **** #ifndef   __RESTRICT
 114:Drivers/CMSIS/Include/cmsis_gcc.h ****   #define __RESTRICT                             __restrict
 115:Drivers/CMSIS/Include/cmsis_gcc.h **** #endif
 116:Drivers/CMSIS/Include/cmsis_gcc.h **** 
 117:Drivers/CMSIS/Include/cmsis_gcc.h **** 
 118:Drivers/CMSIS/Include/cmsis_gcc.h **** /* ###########################  Core Function Access  ########################### */
 119:Drivers/CMSIS/Include/cmsis_gcc.h **** /** \ingroup  CMSIS_Core_FunctionInterface
 120:Drivers/CMSIS/Include/cmsis_gcc.h ****     \defgroup CMSIS_Core_RegAccFunctions CMSIS Core Register Access Functions
 121:Drivers/CMSIS/Include/cmsis_gcc.h ****   @{
 122:Drivers/CMSIS/Include/cmsis_gcc.h ****  */
 123:Drivers/CMSIS/Include/cmsis_gcc.h **** 
 124:Drivers/CMSIS/Include/cmsis_gcc.h **** /**
 125:Drivers/CMSIS/Include/cmsis_gcc.h ****   \brief   Enable IRQ Interrupts
 126:Drivers/CMSIS/Include/cmsis_gcc.h ****   \details Enables IRQ interrupts by clearing the I-bit in the CPSR.
 127:Drivers/CMSIS/Include/cmsis_gcc.h ****            Can only be executed in Privileged modes.
 128:Drivers/CMSIS/Include/cmsis_gcc.h ****  */
 129:Drivers/CMSIS/Include/cmsis_gcc.h **** __STATIC_FORCEINLINE void __enable_irq(void)
 130:Drivers/CMSIS/Include/cmsis_gcc.h **** {
 131:Drivers/CMSIS/Include/cmsis_gcc.h ****   __ASM volatile ("cpsie i" : : : "memory");
 132:Drivers/CMSIS/Include/cmsis_gcc.h **** }
 133:Drivers/CMSIS/Include/cmsis_gcc.h **** 
 134:Drivers/CMSIS/Include/cmsis_gcc.h **** 
 135:Drivers/CMSIS/Include/cmsis_gcc.h **** /**
 136:Drivers/CMSIS/Include/cmsis_gcc.h ****   \brief   Disable IRQ Interrupts
 137:Drivers/CMSIS/Include/cmsis_gcc.h ****   \details Disables IRQ interrupts by setting the I-bit in the CPSR.
 138:Drivers/CMSIS/Include/cmsis_gcc.h ****            Can only be executed in Privileged modes.
ARM GAS  /var/folders/9y/n02fl3g16gnf7ppy14xghdy80000gn/T//ccscaFA7.s 			page 13


 139:Drivers/CMSIS/Include/cmsis_gcc.h ****  */
 140:Drivers/CMSIS/Include/cmsis_gcc.h **** __STATIC_FORCEINLINE void __disable_irq(void)
 304              		.loc 2 140 27 view .LVU51
 305              	.LBB12:
 141:Drivers/CMSIS/Include/cmsis_gcc.h **** {
 142:Drivers/CMSIS/Include/cmsis_gcc.h ****   __ASM volatile ("cpsid i" : : : "memory");
 306              		.loc 2 142 3 view .LVU52
 307              		.syntax unified
 308              	@ 142 "Drivers/CMSIS/Include/cmsis_gcc.h" 1
 309 0000 72B6     		cpsid i
 310              	@ 0 "" 2
 311              		.thumb
 312              		.syntax unified
 313              	.L24:
 314              	.LBE12:
 315              	.LBE11:
 240:Core/Src/main.c ****     while (1)
 316              		.loc 1 240 5 discriminator 1 view .LVU53
 241:Core/Src/main.c ****     {
 242:Core/Src/main.c ****     }
 317              		.loc 1 242 5 discriminator 1 view .LVU54
 240:Core/Src/main.c ****     while (1)
 318              		.loc 1 240 11 discriminator 1 view .LVU55
 319 0002 FEE7     		b	.L24
 320              		.cfi_endproc
 321              	.LFE152:
 323              		.section	.text.SystemClock_Config,"ax",%progbits
 324              		.align	1
 325              		.global	SystemClock_Config
 326              		.syntax unified
 327              		.thumb
 328              		.thumb_func
 329              		.fpu fpv5-sp-d16
 331              	SystemClock_Config:
 332              	.LFB145:
 122:Core/Src/main.c ****     RCC_OscInitTypeDef RCC_OscInitStruct = {0};
 333              		.loc 1 122 1 view -0
 334              		.cfi_startproc
 335              		@ args = 0, pretend = 0, frame = 80
 336              		@ frame_needed = 0, uses_anonymous_args = 0
 337 0000 00B5     		push	{lr}
 338              		.cfi_def_cfa_offset 4
 339              		.cfi_offset 14, -4
 340 0002 95B0     		sub	sp, sp, #84
 341              		.cfi_def_cfa_offset 88
 123:Core/Src/main.c ****     RCC_ClkInitTypeDef RCC_ClkInitStruct = {0};
 342              		.loc 1 123 5 view .LVU57
 123:Core/Src/main.c ****     RCC_ClkInitTypeDef RCC_ClkInitStruct = {0};
 343              		.loc 1 123 24 is_stmt 0 view .LVU58
 344 0004 3022     		movs	r2, #48
 345 0006 0021     		movs	r1, #0
 346 0008 08A8     		add	r0, sp, #32
 347 000a FFF7FEFF 		bl	memset
 348              	.LVL7:
 124:Core/Src/main.c **** 
 349              		.loc 1 124 5 is_stmt 1 view .LVU59
 124:Core/Src/main.c **** 
ARM GAS  /var/folders/9y/n02fl3g16gnf7ppy14xghdy80000gn/T//ccscaFA7.s 			page 14


 350              		.loc 1 124 24 is_stmt 0 view .LVU60
 351 000e 0023     		movs	r3, #0
 352 0010 0393     		str	r3, [sp, #12]
 353 0012 0493     		str	r3, [sp, #16]
 354 0014 0593     		str	r3, [sp, #20]
 355 0016 0693     		str	r3, [sp, #24]
 356 0018 0793     		str	r3, [sp, #28]
 128:Core/Src/main.c ****     __HAL_PWR_VOLTAGESCALING_CONFIG(PWR_REGULATOR_VOLTAGE_SCALE1);
 357              		.loc 1 128 5 is_stmt 1 view .LVU61
 358              	.LBB13:
 128:Core/Src/main.c ****     __HAL_PWR_VOLTAGESCALING_CONFIG(PWR_REGULATOR_VOLTAGE_SCALE1);
 359              		.loc 1 128 5 view .LVU62
 128:Core/Src/main.c ****     __HAL_PWR_VOLTAGESCALING_CONFIG(PWR_REGULATOR_VOLTAGE_SCALE1);
 360              		.loc 1 128 5 view .LVU63
 361 001a 214A     		ldr	r2, .L33
 362 001c 116C     		ldr	r1, [r2, #64]
 363 001e 41F08051 		orr	r1, r1, #268435456
 364 0022 1164     		str	r1, [r2, #64]
 128:Core/Src/main.c ****     __HAL_PWR_VOLTAGESCALING_CONFIG(PWR_REGULATOR_VOLTAGE_SCALE1);
 365              		.loc 1 128 5 view .LVU64
 366 0024 126C     		ldr	r2, [r2, #64]
 367 0026 02F08052 		and	r2, r2, #268435456
 368 002a 0192     		str	r2, [sp, #4]
 128:Core/Src/main.c ****     __HAL_PWR_VOLTAGESCALING_CONFIG(PWR_REGULATOR_VOLTAGE_SCALE1);
 369              		.loc 1 128 5 view .LVU65
 370 002c 019A     		ldr	r2, [sp, #4]
 371              	.LBE13:
 128:Core/Src/main.c ****     __HAL_PWR_VOLTAGESCALING_CONFIG(PWR_REGULATOR_VOLTAGE_SCALE1);
 372              		.loc 1 128 5 view .LVU66
 129:Core/Src/main.c **** 
 373              		.loc 1 129 5 view .LVU67
 374              	.LBB14:
 129:Core/Src/main.c **** 
 375              		.loc 1 129 5 view .LVU68
 129:Core/Src/main.c **** 
 376              		.loc 1 129 5 view .LVU69
 377 002e 1D4A     		ldr	r2, .L33+4
 378 0030 1168     		ldr	r1, [r2]
 379 0032 41F44041 		orr	r1, r1, #49152
 380 0036 1160     		str	r1, [r2]
 129:Core/Src/main.c **** 
 381              		.loc 1 129 5 view .LVU70
 382 0038 1268     		ldr	r2, [r2]
 383 003a 02F44042 		and	r2, r2, #49152
 384 003e 0292     		str	r2, [sp, #8]
 129:Core/Src/main.c **** 
 385              		.loc 1 129 5 view .LVU71
 386 0040 029A     		ldr	r2, [sp, #8]
 387              	.LBE14:
 129:Core/Src/main.c **** 
 388              		.loc 1 129 5 view .LVU72
 134:Core/Src/main.c ****     RCC_OscInitStruct.HSIState = RCC_HSI_ON;
 389              		.loc 1 134 5 view .LVU73
 134:Core/Src/main.c ****     RCC_OscInitStruct.HSIState = RCC_HSI_ON;
 390              		.loc 1 134 38 is_stmt 0 view .LVU74
 391 0042 0222     		movs	r2, #2
 392 0044 0892     		str	r2, [sp, #32]
ARM GAS  /var/folders/9y/n02fl3g16gnf7ppy14xghdy80000gn/T//ccscaFA7.s 			page 15


 135:Core/Src/main.c ****     RCC_OscInitStruct.HSICalibrationValue = RCC_HSICALIBRATION_DEFAULT;
 393              		.loc 1 135 5 is_stmt 1 view .LVU75
 135:Core/Src/main.c ****     RCC_OscInitStruct.HSICalibrationValue = RCC_HSICALIBRATION_DEFAULT;
 394              		.loc 1 135 32 is_stmt 0 view .LVU76
 395 0046 0121     		movs	r1, #1
 396 0048 0B91     		str	r1, [sp, #44]
 136:Core/Src/main.c ****     RCC_OscInitStruct.PLL.PLLState = RCC_PLL_ON;
 397              		.loc 1 136 5 is_stmt 1 view .LVU77
 136:Core/Src/main.c ****     RCC_OscInitStruct.PLL.PLLState = RCC_PLL_ON;
 398              		.loc 1 136 43 is_stmt 0 view .LVU78
 399 004a 1021     		movs	r1, #16
 400 004c 0C91     		str	r1, [sp, #48]
 137:Core/Src/main.c ****     RCC_OscInitStruct.PLL.PLLSource = RCC_PLLSOURCE_HSI;
 401              		.loc 1 137 5 is_stmt 1 view .LVU79
 137:Core/Src/main.c ****     RCC_OscInitStruct.PLL.PLLSource = RCC_PLLSOURCE_HSI;
 402              		.loc 1 137 36 is_stmt 0 view .LVU80
 403 004e 0E92     		str	r2, [sp, #56]
 138:Core/Src/main.c ****     RCC_OscInitStruct.PLL.PLLM = 8;
 404              		.loc 1 138 5 is_stmt 1 view .LVU81
 138:Core/Src/main.c ****     RCC_OscInitStruct.PLL.PLLM = 8;
 405              		.loc 1 138 37 is_stmt 0 view .LVU82
 406 0050 0F93     		str	r3, [sp, #60]
 139:Core/Src/main.c ****     RCC_OscInitStruct.PLL.PLLN = 216;
 407              		.loc 1 139 5 is_stmt 1 view .LVU83
 139:Core/Src/main.c ****     RCC_OscInitStruct.PLL.PLLN = 216;
 408              		.loc 1 139 32 is_stmt 0 view .LVU84
 409 0052 0823     		movs	r3, #8
 410 0054 1093     		str	r3, [sp, #64]
 140:Core/Src/main.c ****     RCC_OscInitStruct.PLL.PLLP = RCC_PLLP_DIV2;
 411              		.loc 1 140 5 is_stmt 1 view .LVU85
 140:Core/Src/main.c ****     RCC_OscInitStruct.PLL.PLLP = RCC_PLLP_DIV2;
 412              		.loc 1 140 32 is_stmt 0 view .LVU86
 413 0056 D823     		movs	r3, #216
 414 0058 1193     		str	r3, [sp, #68]
 141:Core/Src/main.c ****     RCC_OscInitStruct.PLL.PLLQ = 2;
 415              		.loc 1 141 5 is_stmt 1 view .LVU87
 141:Core/Src/main.c ****     RCC_OscInitStruct.PLL.PLLQ = 2;
 416              		.loc 1 141 32 is_stmt 0 view .LVU88
 417 005a 1292     		str	r2, [sp, #72]
 142:Core/Src/main.c ****     if (HAL_RCC_OscConfig(&RCC_OscInitStruct) != HAL_OK)
 418              		.loc 1 142 5 is_stmt 1 view .LVU89
 142:Core/Src/main.c ****     if (HAL_RCC_OscConfig(&RCC_OscInitStruct) != HAL_OK)
 419              		.loc 1 142 32 is_stmt 0 view .LVU90
 420 005c 1392     		str	r2, [sp, #76]
 143:Core/Src/main.c ****     {
 421              		.loc 1 143 5 is_stmt 1 view .LVU91
 143:Core/Src/main.c ****     {
 422              		.loc 1 143 9 is_stmt 0 view .LVU92
 423 005e 08A8     		add	r0, sp, #32
 424 0060 FFF7FEFF 		bl	HAL_RCC_OscConfig
 425              	.LVL8:
 143:Core/Src/main.c ****     {
 426              		.loc 1 143 8 view .LVU93
 427 0064 B0B9     		cbnz	r0, .L30
 150:Core/Src/main.c ****     {
 428              		.loc 1 150 5 is_stmt 1 view .LVU94
 150:Core/Src/main.c ****     {
ARM GAS  /var/folders/9y/n02fl3g16gnf7ppy14xghdy80000gn/T//ccscaFA7.s 			page 16


 429              		.loc 1 150 9 is_stmt 0 view .LVU95
 430 0066 FFF7FEFF 		bl	HAL_PWREx_EnableOverDrive
 431              	.LVL9:
 150:Core/Src/main.c ****     {
 432              		.loc 1 150 8 view .LVU96
 433 006a A8B9     		cbnz	r0, .L31
 157:Core/Src/main.c ****     RCC_ClkInitStruct.SYSCLKSource = RCC_SYSCLKSOURCE_PLLCLK;
 434              		.loc 1 157 5 is_stmt 1 view .LVU97
 157:Core/Src/main.c ****     RCC_ClkInitStruct.SYSCLKSource = RCC_SYSCLKSOURCE_PLLCLK;
 435              		.loc 1 157 33 is_stmt 0 view .LVU98
 436 006c 0F23     		movs	r3, #15
 437 006e 0393     		str	r3, [sp, #12]
 158:Core/Src/main.c ****     RCC_ClkInitStruct.AHBCLKDivider = RCC_SYSCLK_DIV1;
 438              		.loc 1 158 5 is_stmt 1 view .LVU99
 158:Core/Src/main.c ****     RCC_ClkInitStruct.AHBCLKDivider = RCC_SYSCLK_DIV1;
 439              		.loc 1 158 36 is_stmt 0 view .LVU100
 440 0070 0223     		movs	r3, #2
 441 0072 0493     		str	r3, [sp, #16]
 159:Core/Src/main.c ****     RCC_ClkInitStruct.APB1CLKDivider = RCC_HCLK_DIV4;
 442              		.loc 1 159 5 is_stmt 1 view .LVU101
 159:Core/Src/main.c ****     RCC_ClkInitStruct.APB1CLKDivider = RCC_HCLK_DIV4;
 443              		.loc 1 159 37 is_stmt 0 view .LVU102
 444 0074 0023     		movs	r3, #0
 445 0076 0593     		str	r3, [sp, #20]
 160:Core/Src/main.c ****     RCC_ClkInitStruct.APB2CLKDivider = RCC_HCLK_DIV2;
 446              		.loc 1 160 5 is_stmt 1 view .LVU103
 160:Core/Src/main.c ****     RCC_ClkInitStruct.APB2CLKDivider = RCC_HCLK_DIV2;
 447              		.loc 1 160 38 is_stmt 0 view .LVU104
 448 0078 4FF4A053 		mov	r3, #5120
 449 007c 0693     		str	r3, [sp, #24]
 161:Core/Src/main.c **** 
 450              		.loc 1 161 5 is_stmt 1 view .LVU105
 161:Core/Src/main.c **** 
 451              		.loc 1 161 38 is_stmt 0 view .LVU106
 452 007e 4FF48053 		mov	r3, #4096
 453 0082 0793     		str	r3, [sp, #28]
 163:Core/Src/main.c ****     {
 454              		.loc 1 163 5 is_stmt 1 view .LVU107
 163:Core/Src/main.c ****     {
 455              		.loc 1 163 9 is_stmt 0 view .LVU108
 456 0084 0721     		movs	r1, #7
 457 0086 03A8     		add	r0, sp, #12
 458 0088 FFF7FEFF 		bl	HAL_RCC_ClockConfig
 459              	.LVL10:
 163:Core/Src/main.c ****     {
 460              		.loc 1 163 8 view .LVU109
 461 008c 30B9     		cbnz	r0, .L32
 167:Core/Src/main.c **** 
 462              		.loc 1 167 1 view .LVU110
 463 008e 15B0     		add	sp, sp, #84
 464              		.cfi_remember_state
 465              		.cfi_def_cfa_offset 4
 466              		@ sp needed
 467 0090 5DF804FB 		ldr	pc, [sp], #4
 468              	.L30:
 469              		.cfi_restore_state
 145:Core/Src/main.c ****     }
ARM GAS  /var/folders/9y/n02fl3g16gnf7ppy14xghdy80000gn/T//ccscaFA7.s 			page 17


 470              		.loc 1 145 9 is_stmt 1 view .LVU111
 471 0094 FFF7FEFF 		bl	Error_Handler
 472              	.LVL11:
 473              	.L31:
 152:Core/Src/main.c ****     }
 474              		.loc 1 152 9 view .LVU112
 475 0098 FFF7FEFF 		bl	Error_Handler
 476              	.LVL12:
 477              	.L32:
 165:Core/Src/main.c ****     }
 478              		.loc 1 165 9 view .LVU113
 479 009c FFF7FEFF 		bl	Error_Handler
 480              	.LVL13:
 481              	.L34:
 482              		.align	2
 483              	.L33:
 484 00a0 00380240 		.word	1073887232
 485 00a4 00700040 		.word	1073770496
 486              		.cfi_endproc
 487              	.LFE145:
 489              		.section	.text.main,"ax",%progbits
 490              		.align	1
 491              		.global	main
 492              		.syntax unified
 493              		.thumb
 494              		.thumb_func
 495              		.fpu fpv5-sp-d16
 497              	main:
 498              	.LFB144:
  68:Core/Src/main.c ****     /* USER CODE BEGIN 1 */
 499              		.loc 1 68 1 view -0
 500              		.cfi_startproc
 501              		@ Volatile: function does not return.
 502              		@ args = 0, pretend = 0, frame = 32
 503              		@ frame_needed = 0, uses_anonymous_args = 0
 504 0000 00B5     		push	{lr}
 505              		.cfi_def_cfa_offset 4
 506              		.cfi_offset 14, -4
 507 0002 89B0     		sub	sp, sp, #36
 508              		.cfi_def_cfa_offset 40
  74:Core/Src/main.c **** 
 509              		.loc 1 74 5 view .LVU115
 510 0004 FFF7FEFF 		bl	MPU_Config
 511              	.LVL14:
  79:Core/Src/main.c **** 
 512              		.loc 1 79 5 view .LVU116
 513 0008 FFF7FEFF 		bl	HAL_Init
 514              	.LVL15:
  86:Core/Src/main.c **** 
 515              		.loc 1 86 5 view .LVU117
 516 000c FFF7FEFF 		bl	SystemClock_Config
 517              	.LVL16:
  89:Core/Src/main.c ****     /* USER CODE END SysInit */
 518              		.loc 1 89 5 view .LVU118
 519 0010 164B     		ldr	r3, .L39
 520 0012 1B68     		ldr	r3, [r3]
 521 0014 164A     		ldr	r2, .L39+4
ARM GAS  /var/folders/9y/n02fl3g16gnf7ppy14xghdy80000gn/T//ccscaFA7.s 			page 18


 522 0016 A2FB0323 		umull	r2, r3, r2, r3
 523 001a 9B09     		lsrs	r3, r3, #6
 524              	.LVL17:
 525              	.LBB15:
 526              	.LBI15:
 527              		.file 3 "Drivers/CMSIS/Include/core_cm7.h"
   1:Drivers/CMSIS/Include/core_cm7.h **** /**************************************************************************//**
   2:Drivers/CMSIS/Include/core_cm7.h ****  * @file     core_cm7.h
   3:Drivers/CMSIS/Include/core_cm7.h ****  * @brief    CMSIS Cortex-M7 Core Peripheral Access Layer Header File
   4:Drivers/CMSIS/Include/core_cm7.h ****  * @version  V5.0.8
   5:Drivers/CMSIS/Include/core_cm7.h ****  * @date     04. June 2018
   6:Drivers/CMSIS/Include/core_cm7.h ****  ******************************************************************************/
   7:Drivers/CMSIS/Include/core_cm7.h **** /*
   8:Drivers/CMSIS/Include/core_cm7.h ****  * Copyright (c) 2009-2018 Arm Limited. All rights reserved.
   9:Drivers/CMSIS/Include/core_cm7.h ****  *
  10:Drivers/CMSIS/Include/core_cm7.h ****  * SPDX-License-Identifier: Apache-2.0
  11:Drivers/CMSIS/Include/core_cm7.h ****  *
  12:Drivers/CMSIS/Include/core_cm7.h ****  * Licensed under the Apache License, Version 2.0 (the License); you may
  13:Drivers/CMSIS/Include/core_cm7.h ****  * not use this file except in compliance with the License.
  14:Drivers/CMSIS/Include/core_cm7.h ****  * You may obtain a copy of the License at
  15:Drivers/CMSIS/Include/core_cm7.h ****  *
  16:Drivers/CMSIS/Include/core_cm7.h ****  * www.apache.org/licenses/LICENSE-2.0
  17:Drivers/CMSIS/Include/core_cm7.h ****  *
  18:Drivers/CMSIS/Include/core_cm7.h ****  * Unless required by applicable law or agreed to in writing, software
  19:Drivers/CMSIS/Include/core_cm7.h ****  * distributed under the License is distributed on an AS IS BASIS, WITHOUT
  20:Drivers/CMSIS/Include/core_cm7.h ****  * WARRANTIES OR CONDITIONS OF ANY KIND, either express or implied.
  21:Drivers/CMSIS/Include/core_cm7.h ****  * See the License for the specific language governing permissions and
  22:Drivers/CMSIS/Include/core_cm7.h ****  * limitations under the License.
  23:Drivers/CMSIS/Include/core_cm7.h ****  */
  24:Drivers/CMSIS/Include/core_cm7.h **** 
  25:Drivers/CMSIS/Include/core_cm7.h **** #if   defined ( __ICCARM__ )
  26:Drivers/CMSIS/Include/core_cm7.h ****   #pragma system_include         /* treat file as system include file for MISRA check */
  27:Drivers/CMSIS/Include/core_cm7.h **** #elif defined (__clang__)
  28:Drivers/CMSIS/Include/core_cm7.h ****   #pragma clang system_header   /* treat file as system include file */
  29:Drivers/CMSIS/Include/core_cm7.h **** #endif
  30:Drivers/CMSIS/Include/core_cm7.h **** 
  31:Drivers/CMSIS/Include/core_cm7.h **** #ifndef __CORE_CM7_H_GENERIC
  32:Drivers/CMSIS/Include/core_cm7.h **** #define __CORE_CM7_H_GENERIC
  33:Drivers/CMSIS/Include/core_cm7.h **** 
  34:Drivers/CMSIS/Include/core_cm7.h **** #include <stdint.h>
  35:Drivers/CMSIS/Include/core_cm7.h **** 
  36:Drivers/CMSIS/Include/core_cm7.h **** #ifdef __cplusplus
  37:Drivers/CMSIS/Include/core_cm7.h ****  extern "C" {
  38:Drivers/CMSIS/Include/core_cm7.h **** #endif
  39:Drivers/CMSIS/Include/core_cm7.h **** 
  40:Drivers/CMSIS/Include/core_cm7.h **** /**
  41:Drivers/CMSIS/Include/core_cm7.h ****   \page CMSIS_MISRA_Exceptions  MISRA-C:2004 Compliance Exceptions
  42:Drivers/CMSIS/Include/core_cm7.h ****   CMSIS violates the following MISRA-C:2004 rules:
  43:Drivers/CMSIS/Include/core_cm7.h **** 
  44:Drivers/CMSIS/Include/core_cm7.h ****    \li Required Rule 8.5, object/function definition in header file.<br>
  45:Drivers/CMSIS/Include/core_cm7.h ****      Function definitions in header files are used to allow 'inlining'.
  46:Drivers/CMSIS/Include/core_cm7.h **** 
  47:Drivers/CMSIS/Include/core_cm7.h ****    \li Required Rule 18.4, declaration of union type or object of union type: '{...}'.<br>
  48:Drivers/CMSIS/Include/core_cm7.h ****      Unions are used for effective representation of core registers.
  49:Drivers/CMSIS/Include/core_cm7.h **** 
  50:Drivers/CMSIS/Include/core_cm7.h ****    \li Advisory Rule 19.7, Function-like macro defined.<br>
  51:Drivers/CMSIS/Include/core_cm7.h ****      Function-like macros are used to allow more efficient code.
ARM GAS  /var/folders/9y/n02fl3g16gnf7ppy14xghdy80000gn/T//ccscaFA7.s 			page 19


  52:Drivers/CMSIS/Include/core_cm7.h ****  */
  53:Drivers/CMSIS/Include/core_cm7.h **** 
  54:Drivers/CMSIS/Include/core_cm7.h **** 
  55:Drivers/CMSIS/Include/core_cm7.h **** /*******************************************************************************
  56:Drivers/CMSIS/Include/core_cm7.h ****  *                 CMSIS definitions
  57:Drivers/CMSIS/Include/core_cm7.h ****  ******************************************************************************/
  58:Drivers/CMSIS/Include/core_cm7.h **** /**
  59:Drivers/CMSIS/Include/core_cm7.h ****   \ingroup Cortex_M7
  60:Drivers/CMSIS/Include/core_cm7.h ****   @{
  61:Drivers/CMSIS/Include/core_cm7.h ****  */
  62:Drivers/CMSIS/Include/core_cm7.h **** 
  63:Drivers/CMSIS/Include/core_cm7.h **** #include "cmsis_version.h"
  64:Drivers/CMSIS/Include/core_cm7.h **** 
  65:Drivers/CMSIS/Include/core_cm7.h **** /* CMSIS CM7 definitions */
  66:Drivers/CMSIS/Include/core_cm7.h **** #define __CM7_CMSIS_VERSION_MAIN  (__CM_CMSIS_VERSION_MAIN)                  /*!< \deprecated [31:1
  67:Drivers/CMSIS/Include/core_cm7.h **** #define __CM7_CMSIS_VERSION_SUB   ( __CM_CMSIS_VERSION_SUB)                  /*!< \deprecated [15:0
  68:Drivers/CMSIS/Include/core_cm7.h **** #define __CM7_CMSIS_VERSION       ((__CM7_CMSIS_VERSION_MAIN << 16U) | \
  69:Drivers/CMSIS/Include/core_cm7.h ****                                     __CM7_CMSIS_VERSION_SUB           )      /*!< \deprecated CMSIS
  70:Drivers/CMSIS/Include/core_cm7.h **** 
  71:Drivers/CMSIS/Include/core_cm7.h **** #define __CORTEX_M                (7U)                                       /*!< Cortex-M Core */
  72:Drivers/CMSIS/Include/core_cm7.h **** 
  73:Drivers/CMSIS/Include/core_cm7.h **** /** __FPU_USED indicates whether an FPU is used or not.
  74:Drivers/CMSIS/Include/core_cm7.h ****     For this, __FPU_PRESENT has to be checked prior to making use of FPU specific registers and fun
  75:Drivers/CMSIS/Include/core_cm7.h **** */
  76:Drivers/CMSIS/Include/core_cm7.h **** #if defined ( __CC_ARM )
  77:Drivers/CMSIS/Include/core_cm7.h ****   #if defined __TARGET_FPU_VFP
  78:Drivers/CMSIS/Include/core_cm7.h ****     #if defined (__FPU_PRESENT) && (__FPU_PRESENT == 1U)
  79:Drivers/CMSIS/Include/core_cm7.h ****       #define __FPU_USED       1U
  80:Drivers/CMSIS/Include/core_cm7.h ****     #else
  81:Drivers/CMSIS/Include/core_cm7.h ****       #error "Compiler generates FPU instructions for a device without an FPU (check __FPU_PRESENT)
  82:Drivers/CMSIS/Include/core_cm7.h ****       #define __FPU_USED       0U
  83:Drivers/CMSIS/Include/core_cm7.h ****     #endif
  84:Drivers/CMSIS/Include/core_cm7.h ****   #else
  85:Drivers/CMSIS/Include/core_cm7.h ****     #define __FPU_USED         0U
  86:Drivers/CMSIS/Include/core_cm7.h ****   #endif
  87:Drivers/CMSIS/Include/core_cm7.h **** 
  88:Drivers/CMSIS/Include/core_cm7.h **** #elif defined (__ARMCC_VERSION) && (__ARMCC_VERSION >= 6010050)
  89:Drivers/CMSIS/Include/core_cm7.h ****   #if defined __ARM_PCS_VFP
  90:Drivers/CMSIS/Include/core_cm7.h ****     #if defined (__FPU_PRESENT) && (__FPU_PRESENT == 1U)
  91:Drivers/CMSIS/Include/core_cm7.h ****       #define __FPU_USED       1U
  92:Drivers/CMSIS/Include/core_cm7.h ****     #else
  93:Drivers/CMSIS/Include/core_cm7.h ****       #warning "Compiler generates FPU instructions for a device without an FPU (check __FPU_PRESEN
  94:Drivers/CMSIS/Include/core_cm7.h ****       #define __FPU_USED       0U
  95:Drivers/CMSIS/Include/core_cm7.h ****     #endif
  96:Drivers/CMSIS/Include/core_cm7.h ****   #else
  97:Drivers/CMSIS/Include/core_cm7.h ****     #define __FPU_USED         0U
  98:Drivers/CMSIS/Include/core_cm7.h ****   #endif
  99:Drivers/CMSIS/Include/core_cm7.h **** 
 100:Drivers/CMSIS/Include/core_cm7.h **** #elif defined ( __GNUC__ )
 101:Drivers/CMSIS/Include/core_cm7.h ****   #if defined (__VFP_FP__) && !defined(__SOFTFP__)
 102:Drivers/CMSIS/Include/core_cm7.h ****     #if defined (__FPU_PRESENT) && (__FPU_PRESENT == 1U)
 103:Drivers/CMSIS/Include/core_cm7.h ****       #define __FPU_USED       1U
 104:Drivers/CMSIS/Include/core_cm7.h ****     #else
 105:Drivers/CMSIS/Include/core_cm7.h ****       #error "Compiler generates FPU instructions for a device without an FPU (check __FPU_PRESENT)
 106:Drivers/CMSIS/Include/core_cm7.h ****       #define __FPU_USED       0U
 107:Drivers/CMSIS/Include/core_cm7.h ****     #endif
 108:Drivers/CMSIS/Include/core_cm7.h ****   #else
ARM GAS  /var/folders/9y/n02fl3g16gnf7ppy14xghdy80000gn/T//ccscaFA7.s 			page 20


 109:Drivers/CMSIS/Include/core_cm7.h ****     #define __FPU_USED         0U
 110:Drivers/CMSIS/Include/core_cm7.h ****   #endif
 111:Drivers/CMSIS/Include/core_cm7.h **** 
 112:Drivers/CMSIS/Include/core_cm7.h **** #elif defined ( __ICCARM__ )
 113:Drivers/CMSIS/Include/core_cm7.h ****   #if defined __ARMVFP__
 114:Drivers/CMSIS/Include/core_cm7.h ****     #if defined (__FPU_PRESENT) && (__FPU_PRESENT == 1U)
 115:Drivers/CMSIS/Include/core_cm7.h ****       #define __FPU_USED       1U
 116:Drivers/CMSIS/Include/core_cm7.h ****     #else
 117:Drivers/CMSIS/Include/core_cm7.h ****       #error "Compiler generates FPU instructions for a device without an FPU (check __FPU_PRESENT)
 118:Drivers/CMSIS/Include/core_cm7.h ****       #define __FPU_USED       0U
 119:Drivers/CMSIS/Include/core_cm7.h ****     #endif
 120:Drivers/CMSIS/Include/core_cm7.h ****   #else
 121:Drivers/CMSIS/Include/core_cm7.h ****     #define __FPU_USED         0U
 122:Drivers/CMSIS/Include/core_cm7.h ****   #endif
 123:Drivers/CMSIS/Include/core_cm7.h **** 
 124:Drivers/CMSIS/Include/core_cm7.h **** #elif defined ( __TI_ARM__ )
 125:Drivers/CMSIS/Include/core_cm7.h ****   #if defined __TI_VFP_SUPPORT__
 126:Drivers/CMSIS/Include/core_cm7.h ****     #if defined (__FPU_PRESENT) && (__FPU_PRESENT == 1U)
 127:Drivers/CMSIS/Include/core_cm7.h ****       #define __FPU_USED       1U
 128:Drivers/CMSIS/Include/core_cm7.h ****     #else
 129:Drivers/CMSIS/Include/core_cm7.h ****       #error "Compiler generates FPU instructions for a device without an FPU (check __FPU_PRESENT)
 130:Drivers/CMSIS/Include/core_cm7.h ****       #define __FPU_USED       0U
 131:Drivers/CMSIS/Include/core_cm7.h ****     #endif
 132:Drivers/CMSIS/Include/core_cm7.h ****   #else
 133:Drivers/CMSIS/Include/core_cm7.h ****     #define __FPU_USED         0U
 134:Drivers/CMSIS/Include/core_cm7.h ****   #endif
 135:Drivers/CMSIS/Include/core_cm7.h **** 
 136:Drivers/CMSIS/Include/core_cm7.h **** #elif defined ( __TASKING__ )
 137:Drivers/CMSIS/Include/core_cm7.h ****   #if defined __FPU_VFP__
 138:Drivers/CMSIS/Include/core_cm7.h ****     #if defined (__FPU_PRESENT) && (__FPU_PRESENT == 1U)
 139:Drivers/CMSIS/Include/core_cm7.h ****       #define __FPU_USED       1U
 140:Drivers/CMSIS/Include/core_cm7.h ****     #else
 141:Drivers/CMSIS/Include/core_cm7.h ****       #error "Compiler generates FPU instructions for a device without an FPU (check __FPU_PRESENT)
 142:Drivers/CMSIS/Include/core_cm7.h ****       #define __FPU_USED       0U
 143:Drivers/CMSIS/Include/core_cm7.h ****     #endif
 144:Drivers/CMSIS/Include/core_cm7.h ****   #else
 145:Drivers/CMSIS/Include/core_cm7.h ****     #define __FPU_USED         0U
 146:Drivers/CMSIS/Include/core_cm7.h ****   #endif
 147:Drivers/CMSIS/Include/core_cm7.h **** 
 148:Drivers/CMSIS/Include/core_cm7.h **** #elif defined ( __CSMC__ )
 149:Drivers/CMSIS/Include/core_cm7.h ****   #if ( __CSMC__ & 0x400U)
 150:Drivers/CMSIS/Include/core_cm7.h ****     #if defined (__FPU_PRESENT) && (__FPU_PRESENT == 1U)
 151:Drivers/CMSIS/Include/core_cm7.h ****       #define __FPU_USED       1U
 152:Drivers/CMSIS/Include/core_cm7.h ****     #else
 153:Drivers/CMSIS/Include/core_cm7.h ****       #error "Compiler generates FPU instructions for a device without an FPU (check __FPU_PRESENT)
 154:Drivers/CMSIS/Include/core_cm7.h ****       #define __FPU_USED       0U
 155:Drivers/CMSIS/Include/core_cm7.h ****     #endif
 156:Drivers/CMSIS/Include/core_cm7.h ****   #else
 157:Drivers/CMSIS/Include/core_cm7.h ****     #define __FPU_USED         0U
 158:Drivers/CMSIS/Include/core_cm7.h ****   #endif
 159:Drivers/CMSIS/Include/core_cm7.h **** 
 160:Drivers/CMSIS/Include/core_cm7.h **** #endif
 161:Drivers/CMSIS/Include/core_cm7.h **** 
 162:Drivers/CMSIS/Include/core_cm7.h **** #include "cmsis_compiler.h"               /* CMSIS compiler specific defines */
 163:Drivers/CMSIS/Include/core_cm7.h **** 
 164:Drivers/CMSIS/Include/core_cm7.h **** 
 165:Drivers/CMSIS/Include/core_cm7.h **** #ifdef __cplusplus
ARM GAS  /var/folders/9y/n02fl3g16gnf7ppy14xghdy80000gn/T//ccscaFA7.s 			page 21


 166:Drivers/CMSIS/Include/core_cm7.h **** }
 167:Drivers/CMSIS/Include/core_cm7.h **** #endif
 168:Drivers/CMSIS/Include/core_cm7.h **** 
 169:Drivers/CMSIS/Include/core_cm7.h **** #endif /* __CORE_CM7_H_GENERIC */
 170:Drivers/CMSIS/Include/core_cm7.h **** 
 171:Drivers/CMSIS/Include/core_cm7.h **** #ifndef __CMSIS_GENERIC
 172:Drivers/CMSIS/Include/core_cm7.h **** 
 173:Drivers/CMSIS/Include/core_cm7.h **** #ifndef __CORE_CM7_H_DEPENDANT
 174:Drivers/CMSIS/Include/core_cm7.h **** #define __CORE_CM7_H_DEPENDANT
 175:Drivers/CMSIS/Include/core_cm7.h **** 
 176:Drivers/CMSIS/Include/core_cm7.h **** #ifdef __cplusplus
 177:Drivers/CMSIS/Include/core_cm7.h ****  extern "C" {
 178:Drivers/CMSIS/Include/core_cm7.h **** #endif
 179:Drivers/CMSIS/Include/core_cm7.h **** 
 180:Drivers/CMSIS/Include/core_cm7.h **** /* check device defines and use defaults */
 181:Drivers/CMSIS/Include/core_cm7.h **** #if defined __CHECK_DEVICE_DEFINES
 182:Drivers/CMSIS/Include/core_cm7.h ****   #ifndef __CM7_REV
 183:Drivers/CMSIS/Include/core_cm7.h ****     #define __CM7_REV               0x0000U
 184:Drivers/CMSIS/Include/core_cm7.h ****     #warning "__CM7_REV not defined in device header file; using default!"
 185:Drivers/CMSIS/Include/core_cm7.h ****   #endif
 186:Drivers/CMSIS/Include/core_cm7.h **** 
 187:Drivers/CMSIS/Include/core_cm7.h ****   #ifndef __FPU_PRESENT
 188:Drivers/CMSIS/Include/core_cm7.h ****     #define __FPU_PRESENT             0U
 189:Drivers/CMSIS/Include/core_cm7.h ****     #warning "__FPU_PRESENT not defined in device header file; using default!"
 190:Drivers/CMSIS/Include/core_cm7.h ****   #endif
 191:Drivers/CMSIS/Include/core_cm7.h **** 
 192:Drivers/CMSIS/Include/core_cm7.h ****   #ifndef __MPU_PRESENT
 193:Drivers/CMSIS/Include/core_cm7.h ****     #define __MPU_PRESENT             0U
 194:Drivers/CMSIS/Include/core_cm7.h ****     #warning "__MPU_PRESENT not defined in device header file; using default!"
 195:Drivers/CMSIS/Include/core_cm7.h ****   #endif
 196:Drivers/CMSIS/Include/core_cm7.h **** 
 197:Drivers/CMSIS/Include/core_cm7.h ****   #ifndef __ICACHE_PRESENT
 198:Drivers/CMSIS/Include/core_cm7.h ****     #define __ICACHE_PRESENT          0U
 199:Drivers/CMSIS/Include/core_cm7.h ****     #warning "__ICACHE_PRESENT not defined in device header file; using default!"
 200:Drivers/CMSIS/Include/core_cm7.h ****   #endif
 201:Drivers/CMSIS/Include/core_cm7.h **** 
 202:Drivers/CMSIS/Include/core_cm7.h ****   #ifndef __DCACHE_PRESENT
 203:Drivers/CMSIS/Include/core_cm7.h ****     #define __DCACHE_PRESENT          0U
 204:Drivers/CMSIS/Include/core_cm7.h ****     #warning "__DCACHE_PRESENT not defined in device header file; using default!"
 205:Drivers/CMSIS/Include/core_cm7.h ****   #endif
 206:Drivers/CMSIS/Include/core_cm7.h **** 
 207:Drivers/CMSIS/Include/core_cm7.h ****   #ifndef __DTCM_PRESENT
 208:Drivers/CMSIS/Include/core_cm7.h ****     #define __DTCM_PRESENT            0U
 209:Drivers/CMSIS/Include/core_cm7.h ****     #warning "__DTCM_PRESENT        not defined in device header file; using default!"
 210:Drivers/CMSIS/Include/core_cm7.h ****   #endif
 211:Drivers/CMSIS/Include/core_cm7.h **** 
 212:Drivers/CMSIS/Include/core_cm7.h ****   #ifndef __NVIC_PRIO_BITS
 213:Drivers/CMSIS/Include/core_cm7.h ****     #define __NVIC_PRIO_BITS          3U
 214:Drivers/CMSIS/Include/core_cm7.h ****     #warning "__NVIC_PRIO_BITS not defined in device header file; using default!"
 215:Drivers/CMSIS/Include/core_cm7.h ****   #endif
 216:Drivers/CMSIS/Include/core_cm7.h **** 
 217:Drivers/CMSIS/Include/core_cm7.h ****   #ifndef __Vendor_SysTickConfig
 218:Drivers/CMSIS/Include/core_cm7.h ****     #define __Vendor_SysTickConfig    0U
 219:Drivers/CMSIS/Include/core_cm7.h ****     #warning "__Vendor_SysTickConfig not defined in device header file; using default!"
 220:Drivers/CMSIS/Include/core_cm7.h ****   #endif
 221:Drivers/CMSIS/Include/core_cm7.h **** #endif
 222:Drivers/CMSIS/Include/core_cm7.h **** 
ARM GAS  /var/folders/9y/n02fl3g16gnf7ppy14xghdy80000gn/T//ccscaFA7.s 			page 22


 223:Drivers/CMSIS/Include/core_cm7.h **** /* IO definitions (access restrictions to peripheral registers) */
 224:Drivers/CMSIS/Include/core_cm7.h **** /**
 225:Drivers/CMSIS/Include/core_cm7.h ****     \defgroup CMSIS_glob_defs CMSIS Global Defines
 226:Drivers/CMSIS/Include/core_cm7.h **** 
 227:Drivers/CMSIS/Include/core_cm7.h ****     <strong>IO Type Qualifiers</strong> are used
 228:Drivers/CMSIS/Include/core_cm7.h ****     \li to specify the access to peripheral variables.
 229:Drivers/CMSIS/Include/core_cm7.h ****     \li for automatic generation of peripheral register debug information.
 230:Drivers/CMSIS/Include/core_cm7.h **** */
 231:Drivers/CMSIS/Include/core_cm7.h **** #ifdef __cplusplus
 232:Drivers/CMSIS/Include/core_cm7.h ****   #define   __I     volatile             /*!< Defines 'read only' permissions */
 233:Drivers/CMSIS/Include/core_cm7.h **** #else
 234:Drivers/CMSIS/Include/core_cm7.h ****   #define   __I     volatile const       /*!< Defines 'read only' permissions */
 235:Drivers/CMSIS/Include/core_cm7.h **** #endif
 236:Drivers/CMSIS/Include/core_cm7.h **** #define     __O     volatile             /*!< Defines 'write only' permissions */
 237:Drivers/CMSIS/Include/core_cm7.h **** #define     __IO    volatile             /*!< Defines 'read / write' permissions */
 238:Drivers/CMSIS/Include/core_cm7.h **** 
 239:Drivers/CMSIS/Include/core_cm7.h **** /* following defines should be used for structure members */
 240:Drivers/CMSIS/Include/core_cm7.h **** #define     __IM     volatile const      /*! Defines 'read only' structure member permissions */
 241:Drivers/CMSIS/Include/core_cm7.h **** #define     __OM     volatile            /*! Defines 'write only' structure member permissions */
 242:Drivers/CMSIS/Include/core_cm7.h **** #define     __IOM    volatile            /*! Defines 'read / write' structure member permissions */
 243:Drivers/CMSIS/Include/core_cm7.h **** 
 244:Drivers/CMSIS/Include/core_cm7.h **** /*@} end of group Cortex_M7 */
 245:Drivers/CMSIS/Include/core_cm7.h **** 
 246:Drivers/CMSIS/Include/core_cm7.h **** 
 247:Drivers/CMSIS/Include/core_cm7.h **** 
 248:Drivers/CMSIS/Include/core_cm7.h **** /*******************************************************************************
 249:Drivers/CMSIS/Include/core_cm7.h ****  *                 Register Abstraction
 250:Drivers/CMSIS/Include/core_cm7.h ****   Core Register contain:
 251:Drivers/CMSIS/Include/core_cm7.h ****   - Core Register
 252:Drivers/CMSIS/Include/core_cm7.h ****   - Core NVIC Register
 253:Drivers/CMSIS/Include/core_cm7.h ****   - Core SCB Register
 254:Drivers/CMSIS/Include/core_cm7.h ****   - Core SysTick Register
 255:Drivers/CMSIS/Include/core_cm7.h ****   - Core Debug Register
 256:Drivers/CMSIS/Include/core_cm7.h ****   - Core MPU Register
 257:Drivers/CMSIS/Include/core_cm7.h ****   - Core FPU Register
 258:Drivers/CMSIS/Include/core_cm7.h ****  ******************************************************************************/
 259:Drivers/CMSIS/Include/core_cm7.h **** /**
 260:Drivers/CMSIS/Include/core_cm7.h ****   \defgroup CMSIS_core_register Defines and Type Definitions
 261:Drivers/CMSIS/Include/core_cm7.h ****   \brief Type definitions and defines for Cortex-M processor based devices.
 262:Drivers/CMSIS/Include/core_cm7.h **** */
 263:Drivers/CMSIS/Include/core_cm7.h **** 
 264:Drivers/CMSIS/Include/core_cm7.h **** /**
 265:Drivers/CMSIS/Include/core_cm7.h ****   \ingroup    CMSIS_core_register
 266:Drivers/CMSIS/Include/core_cm7.h ****   \defgroup   CMSIS_CORE  Status and Control Registers
 267:Drivers/CMSIS/Include/core_cm7.h ****   \brief      Core Register type definitions.
 268:Drivers/CMSIS/Include/core_cm7.h ****   @{
 269:Drivers/CMSIS/Include/core_cm7.h ****  */
 270:Drivers/CMSIS/Include/core_cm7.h **** 
 271:Drivers/CMSIS/Include/core_cm7.h **** /**
 272:Drivers/CMSIS/Include/core_cm7.h ****   \brief  Union type to access the Application Program Status Register (APSR).
 273:Drivers/CMSIS/Include/core_cm7.h ****  */
 274:Drivers/CMSIS/Include/core_cm7.h **** typedef union
 275:Drivers/CMSIS/Include/core_cm7.h **** {
 276:Drivers/CMSIS/Include/core_cm7.h ****   struct
 277:Drivers/CMSIS/Include/core_cm7.h ****   {
 278:Drivers/CMSIS/Include/core_cm7.h ****     uint32_t _reserved0:16;              /*!< bit:  0..15  Reserved */
 279:Drivers/CMSIS/Include/core_cm7.h ****     uint32_t GE:4;                       /*!< bit: 16..19  Greater than or Equal flags */
ARM GAS  /var/folders/9y/n02fl3g16gnf7ppy14xghdy80000gn/T//ccscaFA7.s 			page 23


 280:Drivers/CMSIS/Include/core_cm7.h ****     uint32_t _reserved1:7;               /*!< bit: 20..26  Reserved */
 281:Drivers/CMSIS/Include/core_cm7.h ****     uint32_t Q:1;                        /*!< bit:     27  Saturation condition flag */
 282:Drivers/CMSIS/Include/core_cm7.h ****     uint32_t V:1;                        /*!< bit:     28  Overflow condition code flag */
 283:Drivers/CMSIS/Include/core_cm7.h ****     uint32_t C:1;                        /*!< bit:     29  Carry condition code flag */
 284:Drivers/CMSIS/Include/core_cm7.h ****     uint32_t Z:1;                        /*!< bit:     30  Zero condition code flag */
 285:Drivers/CMSIS/Include/core_cm7.h ****     uint32_t N:1;                        /*!< bit:     31  Negative condition code flag */
 286:Drivers/CMSIS/Include/core_cm7.h ****   } b;                                   /*!< Structure used for bit  access */
 287:Drivers/CMSIS/Include/core_cm7.h ****   uint32_t w;                            /*!< Type      used for word access */
 288:Drivers/CMSIS/Include/core_cm7.h **** } APSR_Type;
 289:Drivers/CMSIS/Include/core_cm7.h **** 
 290:Drivers/CMSIS/Include/core_cm7.h **** /* APSR Register Definitions */
 291:Drivers/CMSIS/Include/core_cm7.h **** #define APSR_N_Pos                         31U                                            /*!< APSR
 292:Drivers/CMSIS/Include/core_cm7.h **** #define APSR_N_Msk                         (1UL << APSR_N_Pos)                            /*!< APSR
 293:Drivers/CMSIS/Include/core_cm7.h **** 
 294:Drivers/CMSIS/Include/core_cm7.h **** #define APSR_Z_Pos                         30U                                            /*!< APSR
 295:Drivers/CMSIS/Include/core_cm7.h **** #define APSR_Z_Msk                         (1UL << APSR_Z_Pos)                            /*!< APSR
 296:Drivers/CMSIS/Include/core_cm7.h **** 
 297:Drivers/CMSIS/Include/core_cm7.h **** #define APSR_C_Pos                         29U                                            /*!< APSR
 298:Drivers/CMSIS/Include/core_cm7.h **** #define APSR_C_Msk                         (1UL << APSR_C_Pos)                            /*!< APSR
 299:Drivers/CMSIS/Include/core_cm7.h **** 
 300:Drivers/CMSIS/Include/core_cm7.h **** #define APSR_V_Pos                         28U                                            /*!< APSR
 301:Drivers/CMSIS/Include/core_cm7.h **** #define APSR_V_Msk                         (1UL << APSR_V_Pos)                            /*!< APSR
 302:Drivers/CMSIS/Include/core_cm7.h **** 
 303:Drivers/CMSIS/Include/core_cm7.h **** #define APSR_Q_Pos                         27U                                            /*!< APSR
 304:Drivers/CMSIS/Include/core_cm7.h **** #define APSR_Q_Msk                         (1UL << APSR_Q_Pos)                            /*!< APSR
 305:Drivers/CMSIS/Include/core_cm7.h **** 
 306:Drivers/CMSIS/Include/core_cm7.h **** #define APSR_GE_Pos                        16U                                            /*!< APSR
 307:Drivers/CMSIS/Include/core_cm7.h **** #define APSR_GE_Msk                        (0xFUL << APSR_GE_Pos)                         /*!< APSR
 308:Drivers/CMSIS/Include/core_cm7.h **** 
 309:Drivers/CMSIS/Include/core_cm7.h **** 
 310:Drivers/CMSIS/Include/core_cm7.h **** /**
 311:Drivers/CMSIS/Include/core_cm7.h ****   \brief  Union type to access the Interrupt Program Status Register (IPSR).
 312:Drivers/CMSIS/Include/core_cm7.h ****  */
 313:Drivers/CMSIS/Include/core_cm7.h **** typedef union
 314:Drivers/CMSIS/Include/core_cm7.h **** {
 315:Drivers/CMSIS/Include/core_cm7.h ****   struct
 316:Drivers/CMSIS/Include/core_cm7.h ****   {
 317:Drivers/CMSIS/Include/core_cm7.h ****     uint32_t ISR:9;                      /*!< bit:  0.. 8  Exception number */
 318:Drivers/CMSIS/Include/core_cm7.h ****     uint32_t _reserved0:23;              /*!< bit:  9..31  Reserved */
 319:Drivers/CMSIS/Include/core_cm7.h ****   } b;                                   /*!< Structure used for bit  access */
 320:Drivers/CMSIS/Include/core_cm7.h ****   uint32_t w;                            /*!< Type      used for word access */
 321:Drivers/CMSIS/Include/core_cm7.h **** } IPSR_Type;
 322:Drivers/CMSIS/Include/core_cm7.h **** 
 323:Drivers/CMSIS/Include/core_cm7.h **** /* IPSR Register Definitions */
 324:Drivers/CMSIS/Include/core_cm7.h **** #define IPSR_ISR_Pos                        0U                                            /*!< IPSR
 325:Drivers/CMSIS/Include/core_cm7.h **** #define IPSR_ISR_Msk                       (0x1FFUL /*<< IPSR_ISR_Pos*/)                  /*!< IPSR
 326:Drivers/CMSIS/Include/core_cm7.h **** 
 327:Drivers/CMSIS/Include/core_cm7.h **** 
 328:Drivers/CMSIS/Include/core_cm7.h **** /**
 329:Drivers/CMSIS/Include/core_cm7.h ****   \brief  Union type to access the Special-Purpose Program Status Registers (xPSR).
 330:Drivers/CMSIS/Include/core_cm7.h ****  */
 331:Drivers/CMSIS/Include/core_cm7.h **** typedef union
 332:Drivers/CMSIS/Include/core_cm7.h **** {
 333:Drivers/CMSIS/Include/core_cm7.h ****   struct
 334:Drivers/CMSIS/Include/core_cm7.h ****   {
 335:Drivers/CMSIS/Include/core_cm7.h ****     uint32_t ISR:9;                      /*!< bit:  0.. 8  Exception number */
 336:Drivers/CMSIS/Include/core_cm7.h ****     uint32_t _reserved0:1;               /*!< bit:      9  Reserved */
ARM GAS  /var/folders/9y/n02fl3g16gnf7ppy14xghdy80000gn/T//ccscaFA7.s 			page 24


 337:Drivers/CMSIS/Include/core_cm7.h ****     uint32_t ICI_IT_1:6;                 /*!< bit: 10..15  ICI/IT part 1 */
 338:Drivers/CMSIS/Include/core_cm7.h ****     uint32_t GE:4;                       /*!< bit: 16..19  Greater than or Equal flags */
 339:Drivers/CMSIS/Include/core_cm7.h ****     uint32_t _reserved1:4;               /*!< bit: 20..23  Reserved */
 340:Drivers/CMSIS/Include/core_cm7.h ****     uint32_t T:1;                        /*!< bit:     24  Thumb bit */
 341:Drivers/CMSIS/Include/core_cm7.h ****     uint32_t ICI_IT_2:2;                 /*!< bit: 25..26  ICI/IT part 2 */
 342:Drivers/CMSIS/Include/core_cm7.h ****     uint32_t Q:1;                        /*!< bit:     27  Saturation condition flag */
 343:Drivers/CMSIS/Include/core_cm7.h ****     uint32_t V:1;                        /*!< bit:     28  Overflow condition code flag */
 344:Drivers/CMSIS/Include/core_cm7.h ****     uint32_t C:1;                        /*!< bit:     29  Carry condition code flag */
 345:Drivers/CMSIS/Include/core_cm7.h ****     uint32_t Z:1;                        /*!< bit:     30  Zero condition code flag */
 346:Drivers/CMSIS/Include/core_cm7.h ****     uint32_t N:1;                        /*!< bit:     31  Negative condition code flag */
 347:Drivers/CMSIS/Include/core_cm7.h ****   } b;                                   /*!< Structure used for bit  access */
 348:Drivers/CMSIS/Include/core_cm7.h ****   uint32_t w;                            /*!< Type      used for word access */
 349:Drivers/CMSIS/Include/core_cm7.h **** } xPSR_Type;
 350:Drivers/CMSIS/Include/core_cm7.h **** 
 351:Drivers/CMSIS/Include/core_cm7.h **** /* xPSR Register Definitions */
 352:Drivers/CMSIS/Include/core_cm7.h **** #define xPSR_N_Pos                         31U                                            /*!< xPSR
 353:Drivers/CMSIS/Include/core_cm7.h **** #define xPSR_N_Msk                         (1UL << xPSR_N_Pos)                            /*!< xPSR
 354:Drivers/CMSIS/Include/core_cm7.h **** 
 355:Drivers/CMSIS/Include/core_cm7.h **** #define xPSR_Z_Pos                         30U                                            /*!< xPSR
 356:Drivers/CMSIS/Include/core_cm7.h **** #define xPSR_Z_Msk                         (1UL << xPSR_Z_Pos)                            /*!< xPSR
 357:Drivers/CMSIS/Include/core_cm7.h **** 
 358:Drivers/CMSIS/Include/core_cm7.h **** #define xPSR_C_Pos                         29U                                            /*!< xPSR
 359:Drivers/CMSIS/Include/core_cm7.h **** #define xPSR_C_Msk                         (1UL << xPSR_C_Pos)                            /*!< xPSR
 360:Drivers/CMSIS/Include/core_cm7.h **** 
 361:Drivers/CMSIS/Include/core_cm7.h **** #define xPSR_V_Pos                         28U                                            /*!< xPSR
 362:Drivers/CMSIS/Include/core_cm7.h **** #define xPSR_V_Msk                         (1UL << xPSR_V_Pos)                            /*!< xPSR
 363:Drivers/CMSIS/Include/core_cm7.h **** 
 364:Drivers/CMSIS/Include/core_cm7.h **** #define xPSR_Q_Pos                         27U                                            /*!< xPSR
 365:Drivers/CMSIS/Include/core_cm7.h **** #define xPSR_Q_Msk                         (1UL << xPSR_Q_Pos)                            /*!< xPSR
 366:Drivers/CMSIS/Include/core_cm7.h **** 
 367:Drivers/CMSIS/Include/core_cm7.h **** #define xPSR_ICI_IT_2_Pos                  25U                                            /*!< xPSR
 368:Drivers/CMSIS/Include/core_cm7.h **** #define xPSR_ICI_IT_2_Msk                  (3UL << xPSR_ICI_IT_2_Pos)                     /*!< xPSR
 369:Drivers/CMSIS/Include/core_cm7.h **** 
 370:Drivers/CMSIS/Include/core_cm7.h **** #define xPSR_T_Pos                         24U                                            /*!< xPSR
 371:Drivers/CMSIS/Include/core_cm7.h **** #define xPSR_T_Msk                         (1UL << xPSR_T_Pos)                            /*!< xPSR
 372:Drivers/CMSIS/Include/core_cm7.h **** 
 373:Drivers/CMSIS/Include/core_cm7.h **** #define xPSR_GE_Pos                        16U                                            /*!< xPSR
 374:Drivers/CMSIS/Include/core_cm7.h **** #define xPSR_GE_Msk                        (0xFUL << xPSR_GE_Pos)                         /*!< xPSR
 375:Drivers/CMSIS/Include/core_cm7.h **** 
 376:Drivers/CMSIS/Include/core_cm7.h **** #define xPSR_ICI_IT_1_Pos                  10U                                            /*!< xPSR
 377:Drivers/CMSIS/Include/core_cm7.h **** #define xPSR_ICI_IT_1_Msk                  (0x3FUL << xPSR_ICI_IT_1_Pos)                  /*!< xPSR
 378:Drivers/CMSIS/Include/core_cm7.h **** 
 379:Drivers/CMSIS/Include/core_cm7.h **** #define xPSR_ISR_Pos                        0U                                            /*!< xPSR
 380:Drivers/CMSIS/Include/core_cm7.h **** #define xPSR_ISR_Msk                       (0x1FFUL /*<< xPSR_ISR_Pos*/)                  /*!< xPSR
 381:Drivers/CMSIS/Include/core_cm7.h **** 
 382:Drivers/CMSIS/Include/core_cm7.h **** 
 383:Drivers/CMSIS/Include/core_cm7.h **** /**
 384:Drivers/CMSIS/Include/core_cm7.h ****   \brief  Union type to access the Control Registers (CONTROL).
 385:Drivers/CMSIS/Include/core_cm7.h ****  */
 386:Drivers/CMSIS/Include/core_cm7.h **** typedef union
 387:Drivers/CMSIS/Include/core_cm7.h **** {
 388:Drivers/CMSIS/Include/core_cm7.h ****   struct
 389:Drivers/CMSIS/Include/core_cm7.h ****   {
 390:Drivers/CMSIS/Include/core_cm7.h ****     uint32_t nPRIV:1;                    /*!< bit:      0  Execution privilege in Thread mode */
 391:Drivers/CMSIS/Include/core_cm7.h ****     uint32_t SPSEL:1;                    /*!< bit:      1  Stack to be used */
 392:Drivers/CMSIS/Include/core_cm7.h ****     uint32_t FPCA:1;                     /*!< bit:      2  FP extension active flag */
 393:Drivers/CMSIS/Include/core_cm7.h ****     uint32_t _reserved0:29;              /*!< bit:  3..31  Reserved */
ARM GAS  /var/folders/9y/n02fl3g16gnf7ppy14xghdy80000gn/T//ccscaFA7.s 			page 25


 394:Drivers/CMSIS/Include/core_cm7.h ****   } b;                                   /*!< Structure used for bit  access */
 395:Drivers/CMSIS/Include/core_cm7.h ****   uint32_t w;                            /*!< Type      used for word access */
 396:Drivers/CMSIS/Include/core_cm7.h **** } CONTROL_Type;
 397:Drivers/CMSIS/Include/core_cm7.h **** 
 398:Drivers/CMSIS/Include/core_cm7.h **** /* CONTROL Register Definitions */
 399:Drivers/CMSIS/Include/core_cm7.h **** #define CONTROL_FPCA_Pos                    2U                                            /*!< CONT
 400:Drivers/CMSIS/Include/core_cm7.h **** #define CONTROL_FPCA_Msk                   (1UL << CONTROL_FPCA_Pos)                      /*!< CONT
 401:Drivers/CMSIS/Include/core_cm7.h **** 
 402:Drivers/CMSIS/Include/core_cm7.h **** #define CONTROL_SPSEL_Pos                   1U                                            /*!< CONT
 403:Drivers/CMSIS/Include/core_cm7.h **** #define CONTROL_SPSEL_Msk                  (1UL << CONTROL_SPSEL_Pos)                     /*!< CONT
 404:Drivers/CMSIS/Include/core_cm7.h **** 
 405:Drivers/CMSIS/Include/core_cm7.h **** #define CONTROL_nPRIV_Pos                   0U                                            /*!< CONT
 406:Drivers/CMSIS/Include/core_cm7.h **** #define CONTROL_nPRIV_Msk                  (1UL /*<< CONTROL_nPRIV_Pos*/)                 /*!< CONT
 407:Drivers/CMSIS/Include/core_cm7.h **** 
 408:Drivers/CMSIS/Include/core_cm7.h **** /*@} end of group CMSIS_CORE */
 409:Drivers/CMSIS/Include/core_cm7.h **** 
 410:Drivers/CMSIS/Include/core_cm7.h **** 
 411:Drivers/CMSIS/Include/core_cm7.h **** /**
 412:Drivers/CMSIS/Include/core_cm7.h ****   \ingroup    CMSIS_core_register
 413:Drivers/CMSIS/Include/core_cm7.h ****   \defgroup   CMSIS_NVIC  Nested Vectored Interrupt Controller (NVIC)
 414:Drivers/CMSIS/Include/core_cm7.h ****   \brief      Type definitions for the NVIC Registers
 415:Drivers/CMSIS/Include/core_cm7.h ****   @{
 416:Drivers/CMSIS/Include/core_cm7.h ****  */
 417:Drivers/CMSIS/Include/core_cm7.h **** 
 418:Drivers/CMSIS/Include/core_cm7.h **** /**
 419:Drivers/CMSIS/Include/core_cm7.h ****   \brief  Structure type to access the Nested Vectored Interrupt Controller (NVIC).
 420:Drivers/CMSIS/Include/core_cm7.h ****  */
 421:Drivers/CMSIS/Include/core_cm7.h **** typedef struct
 422:Drivers/CMSIS/Include/core_cm7.h **** {
 423:Drivers/CMSIS/Include/core_cm7.h ****   __IOM uint32_t ISER[8U];               /*!< Offset: 0x000 (R/W)  Interrupt Set Enable Register */
 424:Drivers/CMSIS/Include/core_cm7.h ****         uint32_t RESERVED0[24U];
 425:Drivers/CMSIS/Include/core_cm7.h ****   __IOM uint32_t ICER[8U];               /*!< Offset: 0x080 (R/W)  Interrupt Clear Enable Register 
 426:Drivers/CMSIS/Include/core_cm7.h ****         uint32_t RSERVED1[24U];
 427:Drivers/CMSIS/Include/core_cm7.h ****   __IOM uint32_t ISPR[8U];               /*!< Offset: 0x100 (R/W)  Interrupt Set Pending Register *
 428:Drivers/CMSIS/Include/core_cm7.h ****         uint32_t RESERVED2[24U];
 429:Drivers/CMSIS/Include/core_cm7.h ****   __IOM uint32_t ICPR[8U];               /*!< Offset: 0x180 (R/W)  Interrupt Clear Pending Register
 430:Drivers/CMSIS/Include/core_cm7.h ****         uint32_t RESERVED3[24U];
 431:Drivers/CMSIS/Include/core_cm7.h ****   __IOM uint32_t IABR[8U];               /*!< Offset: 0x200 (R/W)  Interrupt Active bit Register */
 432:Drivers/CMSIS/Include/core_cm7.h ****         uint32_t RESERVED4[56U];
 433:Drivers/CMSIS/Include/core_cm7.h ****   __IOM uint8_t  IP[240U];               /*!< Offset: 0x300 (R/W)  Interrupt Priority Register (8Bi
 434:Drivers/CMSIS/Include/core_cm7.h ****         uint32_t RESERVED5[644U];
 435:Drivers/CMSIS/Include/core_cm7.h ****   __OM  uint32_t STIR;                   /*!< Offset: 0xE00 ( /W)  Software Trigger Interrupt Regis
 436:Drivers/CMSIS/Include/core_cm7.h **** }  NVIC_Type;
 437:Drivers/CMSIS/Include/core_cm7.h **** 
 438:Drivers/CMSIS/Include/core_cm7.h **** /* Software Triggered Interrupt Register Definitions */
 439:Drivers/CMSIS/Include/core_cm7.h **** #define NVIC_STIR_INTID_Pos                 0U                                         /*!< STIR: I
 440:Drivers/CMSIS/Include/core_cm7.h **** #define NVIC_STIR_INTID_Msk                (0x1FFUL /*<< NVIC_STIR_INTID_Pos*/)        /*!< STIR: I
 441:Drivers/CMSIS/Include/core_cm7.h **** 
 442:Drivers/CMSIS/Include/core_cm7.h **** /*@} end of group CMSIS_NVIC */
 443:Drivers/CMSIS/Include/core_cm7.h **** 
 444:Drivers/CMSIS/Include/core_cm7.h **** 
 445:Drivers/CMSIS/Include/core_cm7.h **** /**
 446:Drivers/CMSIS/Include/core_cm7.h ****   \ingroup  CMSIS_core_register
 447:Drivers/CMSIS/Include/core_cm7.h ****   \defgroup CMSIS_SCB     System Control Block (SCB)
 448:Drivers/CMSIS/Include/core_cm7.h ****   \brief    Type definitions for the System Control Block Registers
 449:Drivers/CMSIS/Include/core_cm7.h ****   @{
 450:Drivers/CMSIS/Include/core_cm7.h ****  */
ARM GAS  /var/folders/9y/n02fl3g16gnf7ppy14xghdy80000gn/T//ccscaFA7.s 			page 26


 451:Drivers/CMSIS/Include/core_cm7.h **** 
 452:Drivers/CMSIS/Include/core_cm7.h **** /**
 453:Drivers/CMSIS/Include/core_cm7.h ****   \brief  Structure type to access the System Control Block (SCB).
 454:Drivers/CMSIS/Include/core_cm7.h ****  */
 455:Drivers/CMSIS/Include/core_cm7.h **** typedef struct
 456:Drivers/CMSIS/Include/core_cm7.h **** {
 457:Drivers/CMSIS/Include/core_cm7.h ****   __IM  uint32_t CPUID;                  /*!< Offset: 0x000 (R/ )  CPUID Base Register */
 458:Drivers/CMSIS/Include/core_cm7.h ****   __IOM uint32_t ICSR;                   /*!< Offset: 0x004 (R/W)  Interrupt Control and State Regi
 459:Drivers/CMSIS/Include/core_cm7.h ****   __IOM uint32_t VTOR;                   /*!< Offset: 0x008 (R/W)  Vector Table Offset Register */
 460:Drivers/CMSIS/Include/core_cm7.h ****   __IOM uint32_t AIRCR;                  /*!< Offset: 0x00C (R/W)  Application Interrupt and Reset 
 461:Drivers/CMSIS/Include/core_cm7.h ****   __IOM uint32_t SCR;                    /*!< Offset: 0x010 (R/W)  System Control Register */
 462:Drivers/CMSIS/Include/core_cm7.h ****   __IOM uint32_t CCR;                    /*!< Offset: 0x014 (R/W)  Configuration Control Register *
 463:Drivers/CMSIS/Include/core_cm7.h ****   __IOM uint8_t  SHPR[12U];              /*!< Offset: 0x018 (R/W)  System Handlers Priority Registe
 464:Drivers/CMSIS/Include/core_cm7.h ****   __IOM uint32_t SHCSR;                  /*!< Offset: 0x024 (R/W)  System Handler Control and State
 465:Drivers/CMSIS/Include/core_cm7.h ****   __IOM uint32_t CFSR;                   /*!< Offset: 0x028 (R/W)  Configurable Fault Status Regist
 466:Drivers/CMSIS/Include/core_cm7.h ****   __IOM uint32_t HFSR;                   /*!< Offset: 0x02C (R/W)  HardFault Status Register */
 467:Drivers/CMSIS/Include/core_cm7.h ****   __IOM uint32_t DFSR;                   /*!< Offset: 0x030 (R/W)  Debug Fault Status Register */
 468:Drivers/CMSIS/Include/core_cm7.h ****   __IOM uint32_t MMFAR;                  /*!< Offset: 0x034 (R/W)  MemManage Fault Address Register
 469:Drivers/CMSIS/Include/core_cm7.h ****   __IOM uint32_t BFAR;                   /*!< Offset: 0x038 (R/W)  BusFault Address Register */
 470:Drivers/CMSIS/Include/core_cm7.h ****   __IOM uint32_t AFSR;                   /*!< Offset: 0x03C (R/W)  Auxiliary Fault Status Register 
 471:Drivers/CMSIS/Include/core_cm7.h ****   __IM  uint32_t ID_PFR[2U];             /*!< Offset: 0x040 (R/ )  Processor Feature Register */
 472:Drivers/CMSIS/Include/core_cm7.h ****   __IM  uint32_t ID_DFR;                 /*!< Offset: 0x048 (R/ )  Debug Feature Register */
 473:Drivers/CMSIS/Include/core_cm7.h ****   __IM  uint32_t ID_AFR;                 /*!< Offset: 0x04C (R/ )  Auxiliary Feature Register */
 474:Drivers/CMSIS/Include/core_cm7.h ****   __IM  uint32_t ID_MFR[4U];             /*!< Offset: 0x050 (R/ )  Memory Model Feature Register */
 475:Drivers/CMSIS/Include/core_cm7.h ****   __IM  uint32_t ID_ISAR[5U];            /*!< Offset: 0x060 (R/ )  Instruction Set Attributes Regis
 476:Drivers/CMSIS/Include/core_cm7.h ****         uint32_t RESERVED0[1U];
 477:Drivers/CMSIS/Include/core_cm7.h ****   __IM  uint32_t CLIDR;                  /*!< Offset: 0x078 (R/ )  Cache Level ID register */
 478:Drivers/CMSIS/Include/core_cm7.h ****   __IM  uint32_t CTR;                    /*!< Offset: 0x07C (R/ )  Cache Type register */
 479:Drivers/CMSIS/Include/core_cm7.h ****   __IM  uint32_t CCSIDR;                 /*!< Offset: 0x080 (R/ )  Cache Size ID Register */
 480:Drivers/CMSIS/Include/core_cm7.h ****   __IOM uint32_t CSSELR;                 /*!< Offset: 0x084 (R/W)  Cache Size Selection Register */
 481:Drivers/CMSIS/Include/core_cm7.h ****   __IOM uint32_t CPACR;                  /*!< Offset: 0x088 (R/W)  Coprocessor Access Control Regis
 482:Drivers/CMSIS/Include/core_cm7.h ****         uint32_t RESERVED3[93U];
 483:Drivers/CMSIS/Include/core_cm7.h ****   __OM  uint32_t STIR;                   /*!< Offset: 0x200 ( /W)  Software Triggered Interrupt Reg
 484:Drivers/CMSIS/Include/core_cm7.h ****         uint32_t RESERVED4[15U];
 485:Drivers/CMSIS/Include/core_cm7.h ****   __IM  uint32_t MVFR0;                  /*!< Offset: 0x240 (R/ )  Media and VFP Feature Register 0
 486:Drivers/CMSIS/Include/core_cm7.h ****   __IM  uint32_t MVFR1;                  /*!< Offset: 0x244 (R/ )  Media and VFP Feature Register 1
 487:Drivers/CMSIS/Include/core_cm7.h ****   __IM  uint32_t MVFR2;                  /*!< Offset: 0x248 (R/ )  Media and VFP Feature Register 2
 488:Drivers/CMSIS/Include/core_cm7.h ****         uint32_t RESERVED5[1U];
 489:Drivers/CMSIS/Include/core_cm7.h ****   __OM  uint32_t ICIALLU;                /*!< Offset: 0x250 ( /W)  I-Cache Invalidate All to PoU */
 490:Drivers/CMSIS/Include/core_cm7.h ****         uint32_t RESERVED6[1U];
 491:Drivers/CMSIS/Include/core_cm7.h ****   __OM  uint32_t ICIMVAU;                /*!< Offset: 0x258 ( /W)  I-Cache Invalidate by MVA to PoU
 492:Drivers/CMSIS/Include/core_cm7.h ****   __OM  uint32_t DCIMVAC;                /*!< Offset: 0x25C ( /W)  D-Cache Invalidate by MVA to PoC
 493:Drivers/CMSIS/Include/core_cm7.h ****   __OM  uint32_t DCISW;                  /*!< Offset: 0x260 ( /W)  D-Cache Invalidate by Set-way */
 494:Drivers/CMSIS/Include/core_cm7.h ****   __OM  uint32_t DCCMVAU;                /*!< Offset: 0x264 ( /W)  D-Cache Clean by MVA to PoU */
 495:Drivers/CMSIS/Include/core_cm7.h ****   __OM  uint32_t DCCMVAC;                /*!< Offset: 0x268 ( /W)  D-Cache Clean by MVA to PoC */
 496:Drivers/CMSIS/Include/core_cm7.h ****   __OM  uint32_t DCCSW;                  /*!< Offset: 0x26C ( /W)  D-Cache Clean by Set-way */
 497:Drivers/CMSIS/Include/core_cm7.h ****   __OM  uint32_t DCCIMVAC;               /*!< Offset: 0x270 ( /W)  D-Cache Clean and Invalidate by 
 498:Drivers/CMSIS/Include/core_cm7.h ****   __OM  uint32_t DCCISW;                 /*!< Offset: 0x274 ( /W)  D-Cache Clean and Invalidate by 
 499:Drivers/CMSIS/Include/core_cm7.h ****         uint32_t RESERVED7[6U];
 500:Drivers/CMSIS/Include/core_cm7.h ****   __IOM uint32_t ITCMCR;                 /*!< Offset: 0x290 (R/W)  Instruction Tightly-Coupled Memo
 501:Drivers/CMSIS/Include/core_cm7.h ****   __IOM uint32_t DTCMCR;                 /*!< Offset: 0x294 (R/W)  Data Tightly-Coupled Memory Cont
 502:Drivers/CMSIS/Include/core_cm7.h ****   __IOM uint32_t AHBPCR;                 /*!< Offset: 0x298 (R/W)  AHBP Control Register */
 503:Drivers/CMSIS/Include/core_cm7.h ****   __IOM uint32_t CACR;                   /*!< Offset: 0x29C (R/W)  L1 Cache Control Register */
 504:Drivers/CMSIS/Include/core_cm7.h ****   __IOM uint32_t AHBSCR;                 /*!< Offset: 0x2A0 (R/W)  AHB Slave Control Register */
 505:Drivers/CMSIS/Include/core_cm7.h ****         uint32_t RESERVED8[1U];
 506:Drivers/CMSIS/Include/core_cm7.h ****   __IOM uint32_t ABFSR;                  /*!< Offset: 0x2A8 (R/W)  Auxiliary Bus Fault Status Regis
 507:Drivers/CMSIS/Include/core_cm7.h **** } SCB_Type;
ARM GAS  /var/folders/9y/n02fl3g16gnf7ppy14xghdy80000gn/T//ccscaFA7.s 			page 27


 508:Drivers/CMSIS/Include/core_cm7.h **** 
 509:Drivers/CMSIS/Include/core_cm7.h **** /* SCB CPUID Register Definitions */
 510:Drivers/CMSIS/Include/core_cm7.h **** #define SCB_CPUID_IMPLEMENTER_Pos          24U                                            /*!< SCB 
 511:Drivers/CMSIS/Include/core_cm7.h **** #define SCB_CPUID_IMPLEMENTER_Msk          (0xFFUL << SCB_CPUID_IMPLEMENTER_Pos)          /*!< SCB 
 512:Drivers/CMSIS/Include/core_cm7.h **** 
 513:Drivers/CMSIS/Include/core_cm7.h **** #define SCB_CPUID_VARIANT_Pos              20U                                            /*!< SCB 
 514:Drivers/CMSIS/Include/core_cm7.h **** #define SCB_CPUID_VARIANT_Msk              (0xFUL << SCB_CPUID_VARIANT_Pos)               /*!< SCB 
 515:Drivers/CMSIS/Include/core_cm7.h **** 
 516:Drivers/CMSIS/Include/core_cm7.h **** #define SCB_CPUID_ARCHITECTURE_Pos         16U                                            /*!< SCB 
 517:Drivers/CMSIS/Include/core_cm7.h **** #define SCB_CPUID_ARCHITECTURE_Msk         (0xFUL << SCB_CPUID_ARCHITECTURE_Pos)          /*!< SCB 
 518:Drivers/CMSIS/Include/core_cm7.h **** 
 519:Drivers/CMSIS/Include/core_cm7.h **** #define SCB_CPUID_PARTNO_Pos                4U                                            /*!< SCB 
 520:Drivers/CMSIS/Include/core_cm7.h **** #define SCB_CPUID_PARTNO_Msk               (0xFFFUL << SCB_CPUID_PARTNO_Pos)              /*!< SCB 
 521:Drivers/CMSIS/Include/core_cm7.h **** 
 522:Drivers/CMSIS/Include/core_cm7.h **** #define SCB_CPUID_REVISION_Pos              0U                                            /*!< SCB 
 523:Drivers/CMSIS/Include/core_cm7.h **** #define SCB_CPUID_REVISION_Msk             (0xFUL /*<< SCB_CPUID_REVISION_Pos*/)          /*!< SCB 
 524:Drivers/CMSIS/Include/core_cm7.h **** 
 525:Drivers/CMSIS/Include/core_cm7.h **** /* SCB Interrupt Control State Register Definitions */
 526:Drivers/CMSIS/Include/core_cm7.h **** #define SCB_ICSR_NMIPENDSET_Pos            31U                                            /*!< SCB 
 527:Drivers/CMSIS/Include/core_cm7.h **** #define SCB_ICSR_NMIPENDSET_Msk            (1UL << SCB_ICSR_NMIPENDSET_Pos)               /*!< SCB 
 528:Drivers/CMSIS/Include/core_cm7.h **** 
 529:Drivers/CMSIS/Include/core_cm7.h **** #define SCB_ICSR_PENDSVSET_Pos             28U                                            /*!< SCB 
 530:Drivers/CMSIS/Include/core_cm7.h **** #define SCB_ICSR_PENDSVSET_Msk             (1UL << SCB_ICSR_PENDSVSET_Pos)                /*!< SCB 
 531:Drivers/CMSIS/Include/core_cm7.h **** 
 532:Drivers/CMSIS/Include/core_cm7.h **** #define SCB_ICSR_PENDSVCLR_Pos             27U                                            /*!< SCB 
 533:Drivers/CMSIS/Include/core_cm7.h **** #define SCB_ICSR_PENDSVCLR_Msk             (1UL << SCB_ICSR_PENDSVCLR_Pos)                /*!< SCB 
 534:Drivers/CMSIS/Include/core_cm7.h **** 
 535:Drivers/CMSIS/Include/core_cm7.h **** #define SCB_ICSR_PENDSTSET_Pos             26U                                            /*!< SCB 
 536:Drivers/CMSIS/Include/core_cm7.h **** #define SCB_ICSR_PENDSTSET_Msk             (1UL << SCB_ICSR_PENDSTSET_Pos)                /*!< SCB 
 537:Drivers/CMSIS/Include/core_cm7.h **** 
 538:Drivers/CMSIS/Include/core_cm7.h **** #define SCB_ICSR_PENDSTCLR_Pos             25U                                            /*!< SCB 
 539:Drivers/CMSIS/Include/core_cm7.h **** #define SCB_ICSR_PENDSTCLR_Msk             (1UL << SCB_ICSR_PENDSTCLR_Pos)                /*!< SCB 
 540:Drivers/CMSIS/Include/core_cm7.h **** 
 541:Drivers/CMSIS/Include/core_cm7.h **** #define SCB_ICSR_ISRPREEMPT_Pos            23U                                            /*!< SCB 
 542:Drivers/CMSIS/Include/core_cm7.h **** #define SCB_ICSR_ISRPREEMPT_Msk            (1UL << SCB_ICSR_ISRPREEMPT_Pos)               /*!< SCB 
 543:Drivers/CMSIS/Include/core_cm7.h **** 
 544:Drivers/CMSIS/Include/core_cm7.h **** #define SCB_ICSR_ISRPENDING_Pos            22U                                            /*!< SCB 
 545:Drivers/CMSIS/Include/core_cm7.h **** #define SCB_ICSR_ISRPENDING_Msk            (1UL << SCB_ICSR_ISRPENDING_Pos)               /*!< SCB 
 546:Drivers/CMSIS/Include/core_cm7.h **** 
 547:Drivers/CMSIS/Include/core_cm7.h **** #define SCB_ICSR_VECTPENDING_Pos           12U                                            /*!< SCB 
 548:Drivers/CMSIS/Include/core_cm7.h **** #define SCB_ICSR_VECTPENDING_Msk           (0x1FFUL << SCB_ICSR_VECTPENDING_Pos)          /*!< SCB 
 549:Drivers/CMSIS/Include/core_cm7.h **** 
 550:Drivers/CMSIS/Include/core_cm7.h **** #define SCB_ICSR_RETTOBASE_Pos             11U                                            /*!< SCB 
 551:Drivers/CMSIS/Include/core_cm7.h **** #define SCB_ICSR_RETTOBASE_Msk             (1UL << SCB_ICSR_RETTOBASE_Pos)                /*!< SCB 
 552:Drivers/CMSIS/Include/core_cm7.h **** 
 553:Drivers/CMSIS/Include/core_cm7.h **** #define SCB_ICSR_VECTACTIVE_Pos             0U                                            /*!< SCB 
 554:Drivers/CMSIS/Include/core_cm7.h **** #define SCB_ICSR_VECTACTIVE_Msk            (0x1FFUL /*<< SCB_ICSR_VECTACTIVE_Pos*/)       /*!< SCB 
 555:Drivers/CMSIS/Include/core_cm7.h **** 
 556:Drivers/CMSIS/Include/core_cm7.h **** /* SCB Vector Table Offset Register Definitions */
 557:Drivers/CMSIS/Include/core_cm7.h **** #define SCB_VTOR_TBLOFF_Pos                 7U                                            /*!< SCB 
 558:Drivers/CMSIS/Include/core_cm7.h **** #define SCB_VTOR_TBLOFF_Msk                (0x1FFFFFFUL << SCB_VTOR_TBLOFF_Pos)           /*!< SCB 
 559:Drivers/CMSIS/Include/core_cm7.h **** 
 560:Drivers/CMSIS/Include/core_cm7.h **** /* SCB Application Interrupt and Reset Control Register Definitions */
 561:Drivers/CMSIS/Include/core_cm7.h **** #define SCB_AIRCR_VECTKEY_Pos              16U                                            /*!< SCB 
 562:Drivers/CMSIS/Include/core_cm7.h **** #define SCB_AIRCR_VECTKEY_Msk              (0xFFFFUL << SCB_AIRCR_VECTKEY_Pos)            /*!< SCB 
 563:Drivers/CMSIS/Include/core_cm7.h **** 
 564:Drivers/CMSIS/Include/core_cm7.h **** #define SCB_AIRCR_VECTKEYSTAT_Pos          16U                                            /*!< SCB 
ARM GAS  /var/folders/9y/n02fl3g16gnf7ppy14xghdy80000gn/T//ccscaFA7.s 			page 28


 565:Drivers/CMSIS/Include/core_cm7.h **** #define SCB_AIRCR_VECTKEYSTAT_Msk          (0xFFFFUL << SCB_AIRCR_VECTKEYSTAT_Pos)        /*!< SCB 
 566:Drivers/CMSIS/Include/core_cm7.h **** 
 567:Drivers/CMSIS/Include/core_cm7.h **** #define SCB_AIRCR_ENDIANESS_Pos            15U                                            /*!< SCB 
 568:Drivers/CMSIS/Include/core_cm7.h **** #define SCB_AIRCR_ENDIANESS_Msk            (1UL << SCB_AIRCR_ENDIANESS_Pos)               /*!< SCB 
 569:Drivers/CMSIS/Include/core_cm7.h **** 
 570:Drivers/CMSIS/Include/core_cm7.h **** #define SCB_AIRCR_PRIGROUP_Pos              8U                                            /*!< SCB 
 571:Drivers/CMSIS/Include/core_cm7.h **** #define SCB_AIRCR_PRIGROUP_Msk             (7UL << SCB_AIRCR_PRIGROUP_Pos)                /*!< SCB 
 572:Drivers/CMSIS/Include/core_cm7.h **** 
 573:Drivers/CMSIS/Include/core_cm7.h **** #define SCB_AIRCR_SYSRESETREQ_Pos           2U                                            /*!< SCB 
 574:Drivers/CMSIS/Include/core_cm7.h **** #define SCB_AIRCR_SYSRESETREQ_Msk          (1UL << SCB_AIRCR_SYSRESETREQ_Pos)             /*!< SCB 
 575:Drivers/CMSIS/Include/core_cm7.h **** 
 576:Drivers/CMSIS/Include/core_cm7.h **** #define SCB_AIRCR_VECTCLRACTIVE_Pos         1U                                            /*!< SCB 
 577:Drivers/CMSIS/Include/core_cm7.h **** #define SCB_AIRCR_VECTCLRACTIVE_Msk        (1UL << SCB_AIRCR_VECTCLRACTIVE_Pos)           /*!< SCB 
 578:Drivers/CMSIS/Include/core_cm7.h **** 
 579:Drivers/CMSIS/Include/core_cm7.h **** #define SCB_AIRCR_VECTRESET_Pos             0U                                            /*!< SCB 
 580:Drivers/CMSIS/Include/core_cm7.h **** #define SCB_AIRCR_VECTRESET_Msk            (1UL /*<< SCB_AIRCR_VECTRESET_Pos*/)           /*!< SCB 
 581:Drivers/CMSIS/Include/core_cm7.h **** 
 582:Drivers/CMSIS/Include/core_cm7.h **** /* SCB System Control Register Definitions */
 583:Drivers/CMSIS/Include/core_cm7.h **** #define SCB_SCR_SEVONPEND_Pos               4U                                            /*!< SCB 
 584:Drivers/CMSIS/Include/core_cm7.h **** #define SCB_SCR_SEVONPEND_Msk              (1UL << SCB_SCR_SEVONPEND_Pos)                 /*!< SCB 
 585:Drivers/CMSIS/Include/core_cm7.h **** 
 586:Drivers/CMSIS/Include/core_cm7.h **** #define SCB_SCR_SLEEPDEEP_Pos               2U                                            /*!< SCB 
 587:Drivers/CMSIS/Include/core_cm7.h **** #define SCB_SCR_SLEEPDEEP_Msk              (1UL << SCB_SCR_SLEEPDEEP_Pos)                 /*!< SCB 
 588:Drivers/CMSIS/Include/core_cm7.h **** 
 589:Drivers/CMSIS/Include/core_cm7.h **** #define SCB_SCR_SLEEPONEXIT_Pos             1U                                            /*!< SCB 
 590:Drivers/CMSIS/Include/core_cm7.h **** #define SCB_SCR_SLEEPONEXIT_Msk            (1UL << SCB_SCR_SLEEPONEXIT_Pos)               /*!< SCB 
 591:Drivers/CMSIS/Include/core_cm7.h **** 
 592:Drivers/CMSIS/Include/core_cm7.h **** /* SCB Configuration Control Register Definitions */
 593:Drivers/CMSIS/Include/core_cm7.h **** #define SCB_CCR_BP_Pos                      18U                                           /*!< SCB 
 594:Drivers/CMSIS/Include/core_cm7.h **** #define SCB_CCR_BP_Msk                     (1UL << SCB_CCR_BP_Pos)                        /*!< SCB 
 595:Drivers/CMSIS/Include/core_cm7.h **** 
 596:Drivers/CMSIS/Include/core_cm7.h **** #define SCB_CCR_IC_Pos                      17U                                           /*!< SCB 
 597:Drivers/CMSIS/Include/core_cm7.h **** #define SCB_CCR_IC_Msk                     (1UL << SCB_CCR_IC_Pos)                        /*!< SCB 
 598:Drivers/CMSIS/Include/core_cm7.h **** 
 599:Drivers/CMSIS/Include/core_cm7.h **** #define SCB_CCR_DC_Pos                      16U                                           /*!< SCB 
 600:Drivers/CMSIS/Include/core_cm7.h **** #define SCB_CCR_DC_Msk                     (1UL << SCB_CCR_DC_Pos)                        /*!< SCB 
 601:Drivers/CMSIS/Include/core_cm7.h **** 
 602:Drivers/CMSIS/Include/core_cm7.h **** #define SCB_CCR_STKALIGN_Pos                9U                                            /*!< SCB 
 603:Drivers/CMSIS/Include/core_cm7.h **** #define SCB_CCR_STKALIGN_Msk               (1UL << SCB_CCR_STKALIGN_Pos)                  /*!< SCB 
 604:Drivers/CMSIS/Include/core_cm7.h **** 
 605:Drivers/CMSIS/Include/core_cm7.h **** #define SCB_CCR_BFHFNMIGN_Pos               8U                                            /*!< SCB 
 606:Drivers/CMSIS/Include/core_cm7.h **** #define SCB_CCR_BFHFNMIGN_Msk              (1UL << SCB_CCR_BFHFNMIGN_Pos)                 /*!< SCB 
 607:Drivers/CMSIS/Include/core_cm7.h **** 
 608:Drivers/CMSIS/Include/core_cm7.h **** #define SCB_CCR_DIV_0_TRP_Pos               4U                                            /*!< SCB 
 609:Drivers/CMSIS/Include/core_cm7.h **** #define SCB_CCR_DIV_0_TRP_Msk              (1UL << SCB_CCR_DIV_0_TRP_Pos)                 /*!< SCB 
 610:Drivers/CMSIS/Include/core_cm7.h **** 
 611:Drivers/CMSIS/Include/core_cm7.h **** #define SCB_CCR_UNALIGN_TRP_Pos             3U                                            /*!< SCB 
 612:Drivers/CMSIS/Include/core_cm7.h **** #define SCB_CCR_UNALIGN_TRP_Msk            (1UL << SCB_CCR_UNALIGN_TRP_Pos)               /*!< SCB 
 613:Drivers/CMSIS/Include/core_cm7.h **** 
 614:Drivers/CMSIS/Include/core_cm7.h **** #define SCB_CCR_USERSETMPEND_Pos            1U                                            /*!< SCB 
 615:Drivers/CMSIS/Include/core_cm7.h **** #define SCB_CCR_USERSETMPEND_Msk           (1UL << SCB_CCR_USERSETMPEND_Pos)              /*!< SCB 
 616:Drivers/CMSIS/Include/core_cm7.h **** 
 617:Drivers/CMSIS/Include/core_cm7.h **** #define SCB_CCR_NONBASETHRDENA_Pos          0U                                            /*!< SCB 
 618:Drivers/CMSIS/Include/core_cm7.h **** #define SCB_CCR_NONBASETHRDENA_Msk         (1UL /*<< SCB_CCR_NONBASETHRDENA_Pos*/)        /*!< SCB 
 619:Drivers/CMSIS/Include/core_cm7.h **** 
 620:Drivers/CMSIS/Include/core_cm7.h **** /* SCB System Handler Control and State Register Definitions */
 621:Drivers/CMSIS/Include/core_cm7.h **** #define SCB_SHCSR_USGFAULTENA_Pos          18U                                            /*!< SCB 
ARM GAS  /var/folders/9y/n02fl3g16gnf7ppy14xghdy80000gn/T//ccscaFA7.s 			page 29


 622:Drivers/CMSIS/Include/core_cm7.h **** #define SCB_SHCSR_USGFAULTENA_Msk          (1UL << SCB_SHCSR_USGFAULTENA_Pos)             /*!< SCB 
 623:Drivers/CMSIS/Include/core_cm7.h **** 
 624:Drivers/CMSIS/Include/core_cm7.h **** #define SCB_SHCSR_BUSFAULTENA_Pos          17U                                            /*!< SCB 
 625:Drivers/CMSIS/Include/core_cm7.h **** #define SCB_SHCSR_BUSFAULTENA_Msk          (1UL << SCB_SHCSR_BUSFAULTENA_Pos)             /*!< SCB 
 626:Drivers/CMSIS/Include/core_cm7.h **** 
 627:Drivers/CMSIS/Include/core_cm7.h **** #define SCB_SHCSR_MEMFAULTENA_Pos          16U                                            /*!< SCB 
 628:Drivers/CMSIS/Include/core_cm7.h **** #define SCB_SHCSR_MEMFAULTENA_Msk          (1UL << SCB_SHCSR_MEMFAULTENA_Pos)             /*!< SCB 
 629:Drivers/CMSIS/Include/core_cm7.h **** 
 630:Drivers/CMSIS/Include/core_cm7.h **** #define SCB_SHCSR_SVCALLPENDED_Pos         15U                                            /*!< SCB 
 631:Drivers/CMSIS/Include/core_cm7.h **** #define SCB_SHCSR_SVCALLPENDED_Msk         (1UL << SCB_SHCSR_SVCALLPENDED_Pos)            /*!< SCB 
 632:Drivers/CMSIS/Include/core_cm7.h **** 
 633:Drivers/CMSIS/Include/core_cm7.h **** #define SCB_SHCSR_BUSFAULTPENDED_Pos       14U                                            /*!< SCB 
 634:Drivers/CMSIS/Include/core_cm7.h **** #define SCB_SHCSR_BUSFAULTPENDED_Msk       (1UL << SCB_SHCSR_BUSFAULTPENDED_Pos)          /*!< SCB 
 635:Drivers/CMSIS/Include/core_cm7.h **** 
 636:Drivers/CMSIS/Include/core_cm7.h **** #define SCB_SHCSR_MEMFAULTPENDED_Pos       13U                                            /*!< SCB 
 637:Drivers/CMSIS/Include/core_cm7.h **** #define SCB_SHCSR_MEMFAULTPENDED_Msk       (1UL << SCB_SHCSR_MEMFAULTPENDED_Pos)          /*!< SCB 
 638:Drivers/CMSIS/Include/core_cm7.h **** 
 639:Drivers/CMSIS/Include/core_cm7.h **** #define SCB_SHCSR_USGFAULTPENDED_Pos       12U                                            /*!< SCB 
 640:Drivers/CMSIS/Include/core_cm7.h **** #define SCB_SHCSR_USGFAULTPENDED_Msk       (1UL << SCB_SHCSR_USGFAULTPENDED_Pos)          /*!< SCB 
 641:Drivers/CMSIS/Include/core_cm7.h **** 
 642:Drivers/CMSIS/Include/core_cm7.h **** #define SCB_SHCSR_SYSTICKACT_Pos           11U                                            /*!< SCB 
 643:Drivers/CMSIS/Include/core_cm7.h **** #define SCB_SHCSR_SYSTICKACT_Msk           (1UL << SCB_SHCSR_SYSTICKACT_Pos)              /*!< SCB 
 644:Drivers/CMSIS/Include/core_cm7.h **** 
 645:Drivers/CMSIS/Include/core_cm7.h **** #define SCB_SHCSR_PENDSVACT_Pos            10U                                            /*!< SCB 
 646:Drivers/CMSIS/Include/core_cm7.h **** #define SCB_SHCSR_PENDSVACT_Msk            (1UL << SCB_SHCSR_PENDSVACT_Pos)               /*!< SCB 
 647:Drivers/CMSIS/Include/core_cm7.h **** 
 648:Drivers/CMSIS/Include/core_cm7.h **** #define SCB_SHCSR_MONITORACT_Pos            8U                                            /*!< SCB 
 649:Drivers/CMSIS/Include/core_cm7.h **** #define SCB_SHCSR_MONITORACT_Msk           (1UL << SCB_SHCSR_MONITORACT_Pos)              /*!< SCB 
 650:Drivers/CMSIS/Include/core_cm7.h **** 
 651:Drivers/CMSIS/Include/core_cm7.h **** #define SCB_SHCSR_SVCALLACT_Pos             7U                                            /*!< SCB 
 652:Drivers/CMSIS/Include/core_cm7.h **** #define SCB_SHCSR_SVCALLACT_Msk            (1UL << SCB_SHCSR_SVCALLACT_Pos)               /*!< SCB 
 653:Drivers/CMSIS/Include/core_cm7.h **** 
 654:Drivers/CMSIS/Include/core_cm7.h **** #define SCB_SHCSR_USGFAULTACT_Pos           3U                                            /*!< SCB 
 655:Drivers/CMSIS/Include/core_cm7.h **** #define SCB_SHCSR_USGFAULTACT_Msk          (1UL << SCB_SHCSR_USGFAULTACT_Pos)             /*!< SCB 
 656:Drivers/CMSIS/Include/core_cm7.h **** 
 657:Drivers/CMSIS/Include/core_cm7.h **** #define SCB_SHCSR_BUSFAULTACT_Pos           1U                                            /*!< SCB 
 658:Drivers/CMSIS/Include/core_cm7.h **** #define SCB_SHCSR_BUSFAULTACT_Msk          (1UL << SCB_SHCSR_BUSFAULTACT_Pos)             /*!< SCB 
 659:Drivers/CMSIS/Include/core_cm7.h **** 
 660:Drivers/CMSIS/Include/core_cm7.h **** #define SCB_SHCSR_MEMFAULTACT_Pos           0U                                            /*!< SCB 
 661:Drivers/CMSIS/Include/core_cm7.h **** #define SCB_SHCSR_MEMFAULTACT_Msk          (1UL /*<< SCB_SHCSR_MEMFAULTACT_Pos*/)         /*!< SCB 
 662:Drivers/CMSIS/Include/core_cm7.h **** 
 663:Drivers/CMSIS/Include/core_cm7.h **** /* SCB Configurable Fault Status Register Definitions */
 664:Drivers/CMSIS/Include/core_cm7.h **** #define SCB_CFSR_USGFAULTSR_Pos            16U                                            /*!< SCB 
 665:Drivers/CMSIS/Include/core_cm7.h **** #define SCB_CFSR_USGFAULTSR_Msk            (0xFFFFUL << SCB_CFSR_USGFAULTSR_Pos)          /*!< SCB 
 666:Drivers/CMSIS/Include/core_cm7.h **** 
 667:Drivers/CMSIS/Include/core_cm7.h **** #define SCB_CFSR_BUSFAULTSR_Pos             8U                                            /*!< SCB 
 668:Drivers/CMSIS/Include/core_cm7.h **** #define SCB_CFSR_BUSFAULTSR_Msk            (0xFFUL << SCB_CFSR_BUSFAULTSR_Pos)            /*!< SCB 
 669:Drivers/CMSIS/Include/core_cm7.h **** 
 670:Drivers/CMSIS/Include/core_cm7.h **** #define SCB_CFSR_MEMFAULTSR_Pos             0U                                            /*!< SCB 
 671:Drivers/CMSIS/Include/core_cm7.h **** #define SCB_CFSR_MEMFAULTSR_Msk            (0xFFUL /*<< SCB_CFSR_MEMFAULTSR_Pos*/)        /*!< SCB 
 672:Drivers/CMSIS/Include/core_cm7.h **** 
 673:Drivers/CMSIS/Include/core_cm7.h **** /* MemManage Fault Status Register (part of SCB Configurable Fault Status Register) */
 674:Drivers/CMSIS/Include/core_cm7.h **** #define SCB_CFSR_MMARVALID_Pos             (SCB_SHCSR_MEMFAULTACT_Pos + 7U)               /*!< SCB 
 675:Drivers/CMSIS/Include/core_cm7.h **** #define SCB_CFSR_MMARVALID_Msk             (1UL << SCB_CFSR_MMARVALID_Pos)                /*!< SCB 
 676:Drivers/CMSIS/Include/core_cm7.h **** 
 677:Drivers/CMSIS/Include/core_cm7.h **** #define SCB_CFSR_MLSPERR_Pos               (SCB_SHCSR_MEMFAULTACT_Pos + 5U)               /*!< SCB 
 678:Drivers/CMSIS/Include/core_cm7.h **** #define SCB_CFSR_MLSPERR_Msk               (1UL << SCB_CFSR_MLSPERR_Pos)                  /*!< SCB 
ARM GAS  /var/folders/9y/n02fl3g16gnf7ppy14xghdy80000gn/T//ccscaFA7.s 			page 30


 679:Drivers/CMSIS/Include/core_cm7.h **** 
 680:Drivers/CMSIS/Include/core_cm7.h **** #define SCB_CFSR_MSTKERR_Pos               (SCB_SHCSR_MEMFAULTACT_Pos + 4U)               /*!< SCB 
 681:Drivers/CMSIS/Include/core_cm7.h **** #define SCB_CFSR_MSTKERR_Msk               (1UL << SCB_CFSR_MSTKERR_Pos)                  /*!< SCB 
 682:Drivers/CMSIS/Include/core_cm7.h **** 
 683:Drivers/CMSIS/Include/core_cm7.h **** #define SCB_CFSR_MUNSTKERR_Pos             (SCB_SHCSR_MEMFAULTACT_Pos + 3U)               /*!< SCB 
 684:Drivers/CMSIS/Include/core_cm7.h **** #define SCB_CFSR_MUNSTKERR_Msk             (1UL << SCB_CFSR_MUNSTKERR_Pos)                /*!< SCB 
 685:Drivers/CMSIS/Include/core_cm7.h **** 
 686:Drivers/CMSIS/Include/core_cm7.h **** #define SCB_CFSR_DACCVIOL_Pos              (SCB_SHCSR_MEMFAULTACT_Pos + 1U)               /*!< SCB 
 687:Drivers/CMSIS/Include/core_cm7.h **** #define SCB_CFSR_DACCVIOL_Msk              (1UL << SCB_CFSR_DACCVIOL_Pos)                 /*!< SCB 
 688:Drivers/CMSIS/Include/core_cm7.h **** 
 689:Drivers/CMSIS/Include/core_cm7.h **** #define SCB_CFSR_IACCVIOL_Pos              (SCB_SHCSR_MEMFAULTACT_Pos + 0U)               /*!< SCB 
 690:Drivers/CMSIS/Include/core_cm7.h **** #define SCB_CFSR_IACCVIOL_Msk              (1UL /*<< SCB_CFSR_IACCVIOL_Pos*/)             /*!< SCB 
 691:Drivers/CMSIS/Include/core_cm7.h **** 
 692:Drivers/CMSIS/Include/core_cm7.h **** /* BusFault Status Register (part of SCB Configurable Fault Status Register) */
 693:Drivers/CMSIS/Include/core_cm7.h **** #define SCB_CFSR_BFARVALID_Pos            (SCB_CFSR_BUSFAULTSR_Pos + 7U)                  /*!< SCB 
 694:Drivers/CMSIS/Include/core_cm7.h **** #define SCB_CFSR_BFARVALID_Msk            (1UL << SCB_CFSR_BFARVALID_Pos)                 /*!< SCB 
 695:Drivers/CMSIS/Include/core_cm7.h **** 
 696:Drivers/CMSIS/Include/core_cm7.h **** #define SCB_CFSR_LSPERR_Pos               (SCB_CFSR_BUSFAULTSR_Pos + 5U)                  /*!< SCB 
 697:Drivers/CMSIS/Include/core_cm7.h **** #define SCB_CFSR_LSPERR_Msk               (1UL << SCB_CFSR_LSPERR_Pos)                    /*!< SCB 
 698:Drivers/CMSIS/Include/core_cm7.h **** 
 699:Drivers/CMSIS/Include/core_cm7.h **** #define SCB_CFSR_STKERR_Pos               (SCB_CFSR_BUSFAULTSR_Pos + 4U)                  /*!< SCB 
 700:Drivers/CMSIS/Include/core_cm7.h **** #define SCB_CFSR_STKERR_Msk               (1UL << SCB_CFSR_STKERR_Pos)                    /*!< SCB 
 701:Drivers/CMSIS/Include/core_cm7.h **** 
 702:Drivers/CMSIS/Include/core_cm7.h **** #define SCB_CFSR_UNSTKERR_Pos             (SCB_CFSR_BUSFAULTSR_Pos + 3U)                  /*!< SCB 
 703:Drivers/CMSIS/Include/core_cm7.h **** #define SCB_CFSR_UNSTKERR_Msk             (1UL << SCB_CFSR_UNSTKERR_Pos)                  /*!< SCB 
 704:Drivers/CMSIS/Include/core_cm7.h **** 
 705:Drivers/CMSIS/Include/core_cm7.h **** #define SCB_CFSR_IMPRECISERR_Pos          (SCB_CFSR_BUSFAULTSR_Pos + 2U)                  /*!< SCB 
 706:Drivers/CMSIS/Include/core_cm7.h **** #define SCB_CFSR_IMPRECISERR_Msk          (1UL << SCB_CFSR_IMPRECISERR_Pos)               /*!< SCB 
 707:Drivers/CMSIS/Include/core_cm7.h **** 
 708:Drivers/CMSIS/Include/core_cm7.h **** #define SCB_CFSR_PRECISERR_Pos            (SCB_CFSR_BUSFAULTSR_Pos + 1U)                  /*!< SCB 
 709:Drivers/CMSIS/Include/core_cm7.h **** #define SCB_CFSR_PRECISERR_Msk            (1UL << SCB_CFSR_PRECISERR_Pos)                 /*!< SCB 
 710:Drivers/CMSIS/Include/core_cm7.h **** 
 711:Drivers/CMSIS/Include/core_cm7.h **** #define SCB_CFSR_IBUSERR_Pos              (SCB_CFSR_BUSFAULTSR_Pos + 0U)                  /*!< SCB 
 712:Drivers/CMSIS/Include/core_cm7.h **** #define SCB_CFSR_IBUSERR_Msk              (1UL << SCB_CFSR_IBUSERR_Pos)                   /*!< SCB 
 713:Drivers/CMSIS/Include/core_cm7.h **** 
 714:Drivers/CMSIS/Include/core_cm7.h **** /* UsageFault Status Register (part of SCB Configurable Fault Status Register) */
 715:Drivers/CMSIS/Include/core_cm7.h **** #define SCB_CFSR_DIVBYZERO_Pos            (SCB_CFSR_USGFAULTSR_Pos + 9U)                  /*!< SCB 
 716:Drivers/CMSIS/Include/core_cm7.h **** #define SCB_CFSR_DIVBYZERO_Msk            (1UL << SCB_CFSR_DIVBYZERO_Pos)                 /*!< SCB 
 717:Drivers/CMSIS/Include/core_cm7.h **** 
 718:Drivers/CMSIS/Include/core_cm7.h **** #define SCB_CFSR_UNALIGNED_Pos            (SCB_CFSR_USGFAULTSR_Pos + 8U)                  /*!< SCB 
 719:Drivers/CMSIS/Include/core_cm7.h **** #define SCB_CFSR_UNALIGNED_Msk            (1UL << SCB_CFSR_UNALIGNED_Pos)                 /*!< SCB 
 720:Drivers/CMSIS/Include/core_cm7.h **** 
 721:Drivers/CMSIS/Include/core_cm7.h **** #define SCB_CFSR_NOCP_Pos                 (SCB_CFSR_USGFAULTSR_Pos + 3U)                  /*!< SCB 
 722:Drivers/CMSIS/Include/core_cm7.h **** #define SCB_CFSR_NOCP_Msk                 (1UL << SCB_CFSR_NOCP_Pos)                      /*!< SCB 
 723:Drivers/CMSIS/Include/core_cm7.h **** 
 724:Drivers/CMSIS/Include/core_cm7.h **** #define SCB_CFSR_INVPC_Pos                (SCB_CFSR_USGFAULTSR_Pos + 2U)                  /*!< SCB 
 725:Drivers/CMSIS/Include/core_cm7.h **** #define SCB_CFSR_INVPC_Msk                (1UL << SCB_CFSR_INVPC_Pos)                     /*!< SCB 
 726:Drivers/CMSIS/Include/core_cm7.h **** 
 727:Drivers/CMSIS/Include/core_cm7.h **** #define SCB_CFSR_INVSTATE_Pos             (SCB_CFSR_USGFAULTSR_Pos + 1U)                  /*!< SCB 
 728:Drivers/CMSIS/Include/core_cm7.h **** #define SCB_CFSR_INVSTATE_Msk             (1UL << SCB_CFSR_INVSTATE_Pos)                  /*!< SCB 
 729:Drivers/CMSIS/Include/core_cm7.h **** 
 730:Drivers/CMSIS/Include/core_cm7.h **** #define SCB_CFSR_UNDEFINSTR_Pos           (SCB_CFSR_USGFAULTSR_Pos + 0U)                  /*!< SCB 
 731:Drivers/CMSIS/Include/core_cm7.h **** #define SCB_CFSR_UNDEFINSTR_Msk           (1UL << SCB_CFSR_UNDEFINSTR_Pos)                /*!< SCB 
 732:Drivers/CMSIS/Include/core_cm7.h **** 
 733:Drivers/CMSIS/Include/core_cm7.h **** /* SCB Hard Fault Status Register Definitions */
 734:Drivers/CMSIS/Include/core_cm7.h **** #define SCB_HFSR_DEBUGEVT_Pos              31U                                            /*!< SCB 
 735:Drivers/CMSIS/Include/core_cm7.h **** #define SCB_HFSR_DEBUGEVT_Msk              (1UL << SCB_HFSR_DEBUGEVT_Pos)                 /*!< SCB 
ARM GAS  /var/folders/9y/n02fl3g16gnf7ppy14xghdy80000gn/T//ccscaFA7.s 			page 31


 736:Drivers/CMSIS/Include/core_cm7.h **** 
 737:Drivers/CMSIS/Include/core_cm7.h **** #define SCB_HFSR_FORCED_Pos                30U                                            /*!< SCB 
 738:Drivers/CMSIS/Include/core_cm7.h **** #define SCB_HFSR_FORCED_Msk                (1UL << SCB_HFSR_FORCED_Pos)                   /*!< SCB 
 739:Drivers/CMSIS/Include/core_cm7.h **** 
 740:Drivers/CMSIS/Include/core_cm7.h **** #define SCB_HFSR_VECTTBL_Pos                1U                                            /*!< SCB 
 741:Drivers/CMSIS/Include/core_cm7.h **** #define SCB_HFSR_VECTTBL_Msk               (1UL << SCB_HFSR_VECTTBL_Pos)                  /*!< SCB 
 742:Drivers/CMSIS/Include/core_cm7.h **** 
 743:Drivers/CMSIS/Include/core_cm7.h **** /* SCB Debug Fault Status Register Definitions */
 744:Drivers/CMSIS/Include/core_cm7.h **** #define SCB_DFSR_EXTERNAL_Pos               4U                                            /*!< SCB 
 745:Drivers/CMSIS/Include/core_cm7.h **** #define SCB_DFSR_EXTERNAL_Msk              (1UL << SCB_DFSR_EXTERNAL_Pos)                 /*!< SCB 
 746:Drivers/CMSIS/Include/core_cm7.h **** 
 747:Drivers/CMSIS/Include/core_cm7.h **** #define SCB_DFSR_VCATCH_Pos                 3U                                            /*!< SCB 
 748:Drivers/CMSIS/Include/core_cm7.h **** #define SCB_DFSR_VCATCH_Msk                (1UL << SCB_DFSR_VCATCH_Pos)                   /*!< SCB 
 749:Drivers/CMSIS/Include/core_cm7.h **** 
 750:Drivers/CMSIS/Include/core_cm7.h **** #define SCB_DFSR_DWTTRAP_Pos                2U                                            /*!< SCB 
 751:Drivers/CMSIS/Include/core_cm7.h **** #define SCB_DFSR_DWTTRAP_Msk               (1UL << SCB_DFSR_DWTTRAP_Pos)                  /*!< SCB 
 752:Drivers/CMSIS/Include/core_cm7.h **** 
 753:Drivers/CMSIS/Include/core_cm7.h **** #define SCB_DFSR_BKPT_Pos                   1U                                            /*!< SCB 
 754:Drivers/CMSIS/Include/core_cm7.h **** #define SCB_DFSR_BKPT_Msk                  (1UL << SCB_DFSR_BKPT_Pos)                     /*!< SCB 
 755:Drivers/CMSIS/Include/core_cm7.h **** 
 756:Drivers/CMSIS/Include/core_cm7.h **** #define SCB_DFSR_HALTED_Pos                 0U                                            /*!< SCB 
 757:Drivers/CMSIS/Include/core_cm7.h **** #define SCB_DFSR_HALTED_Msk                (1UL /*<< SCB_DFSR_HALTED_Pos*/)               /*!< SCB 
 758:Drivers/CMSIS/Include/core_cm7.h **** 
 759:Drivers/CMSIS/Include/core_cm7.h **** /* SCB Cache Level ID Register Definitions */
 760:Drivers/CMSIS/Include/core_cm7.h **** #define SCB_CLIDR_LOUU_Pos                 27U                                            /*!< SCB 
 761:Drivers/CMSIS/Include/core_cm7.h **** #define SCB_CLIDR_LOUU_Msk                 (7UL << SCB_CLIDR_LOUU_Pos)                    /*!< SCB 
 762:Drivers/CMSIS/Include/core_cm7.h **** 
 763:Drivers/CMSIS/Include/core_cm7.h **** #define SCB_CLIDR_LOC_Pos                  24U                                            /*!< SCB 
 764:Drivers/CMSIS/Include/core_cm7.h **** #define SCB_CLIDR_LOC_Msk                  (7UL << SCB_CLIDR_LOC_Pos)                     /*!< SCB 
 765:Drivers/CMSIS/Include/core_cm7.h **** 
 766:Drivers/CMSIS/Include/core_cm7.h **** /* SCB Cache Type Register Definitions */
 767:Drivers/CMSIS/Include/core_cm7.h **** #define SCB_CTR_FORMAT_Pos                 29U                                            /*!< SCB 
 768:Drivers/CMSIS/Include/core_cm7.h **** #define SCB_CTR_FORMAT_Msk                 (7UL << SCB_CTR_FORMAT_Pos)                    /*!< SCB 
 769:Drivers/CMSIS/Include/core_cm7.h **** 
 770:Drivers/CMSIS/Include/core_cm7.h **** #define SCB_CTR_CWG_Pos                    24U                                            /*!< SCB 
 771:Drivers/CMSIS/Include/core_cm7.h **** #define SCB_CTR_CWG_Msk                    (0xFUL << SCB_CTR_CWG_Pos)                     /*!< SCB 
 772:Drivers/CMSIS/Include/core_cm7.h **** 
 773:Drivers/CMSIS/Include/core_cm7.h **** #define SCB_CTR_ERG_Pos                    20U                                            /*!< SCB 
 774:Drivers/CMSIS/Include/core_cm7.h **** #define SCB_CTR_ERG_Msk                    (0xFUL << SCB_CTR_ERG_Pos)                     /*!< SCB 
 775:Drivers/CMSIS/Include/core_cm7.h **** 
 776:Drivers/CMSIS/Include/core_cm7.h **** #define SCB_CTR_DMINLINE_Pos               16U                                            /*!< SCB 
 777:Drivers/CMSIS/Include/core_cm7.h **** #define SCB_CTR_DMINLINE_Msk               (0xFUL << SCB_CTR_DMINLINE_Pos)                /*!< SCB 
 778:Drivers/CMSIS/Include/core_cm7.h **** 
 779:Drivers/CMSIS/Include/core_cm7.h **** #define SCB_CTR_IMINLINE_Pos                0U                                            /*!< SCB 
 780:Drivers/CMSIS/Include/core_cm7.h **** #define SCB_CTR_IMINLINE_Msk               (0xFUL /*<< SCB_CTR_IMINLINE_Pos*/)            /*!< SCB 
 781:Drivers/CMSIS/Include/core_cm7.h **** 
 782:Drivers/CMSIS/Include/core_cm7.h **** /* SCB Cache Size ID Register Definitions */
 783:Drivers/CMSIS/Include/core_cm7.h **** #define SCB_CCSIDR_WT_Pos                  31U                                            /*!< SCB 
 784:Drivers/CMSIS/Include/core_cm7.h **** #define SCB_CCSIDR_WT_Msk                  (1UL << SCB_CCSIDR_WT_Pos)                     /*!< SCB 
 785:Drivers/CMSIS/Include/core_cm7.h **** 
 786:Drivers/CMSIS/Include/core_cm7.h **** #define SCB_CCSIDR_WB_Pos                  30U                                            /*!< SCB 
 787:Drivers/CMSIS/Include/core_cm7.h **** #define SCB_CCSIDR_WB_Msk                  (1UL << SCB_CCSIDR_WB_Pos)                     /*!< SCB 
 788:Drivers/CMSIS/Include/core_cm7.h **** 
 789:Drivers/CMSIS/Include/core_cm7.h **** #define SCB_CCSIDR_RA_Pos                  29U                                            /*!< SCB 
 790:Drivers/CMSIS/Include/core_cm7.h **** #define SCB_CCSIDR_RA_Msk                  (1UL << SCB_CCSIDR_RA_Pos)                     /*!< SCB 
 791:Drivers/CMSIS/Include/core_cm7.h **** 
 792:Drivers/CMSIS/Include/core_cm7.h **** #define SCB_CCSIDR_WA_Pos                  28U                                            /*!< SCB 
ARM GAS  /var/folders/9y/n02fl3g16gnf7ppy14xghdy80000gn/T//ccscaFA7.s 			page 32


 793:Drivers/CMSIS/Include/core_cm7.h **** #define SCB_CCSIDR_WA_Msk                  (1UL << SCB_CCSIDR_WA_Pos)                     /*!< SCB 
 794:Drivers/CMSIS/Include/core_cm7.h **** 
 795:Drivers/CMSIS/Include/core_cm7.h **** #define SCB_CCSIDR_NUMSETS_Pos             13U                                            /*!< SCB 
 796:Drivers/CMSIS/Include/core_cm7.h **** #define SCB_CCSIDR_NUMSETS_Msk             (0x7FFFUL << SCB_CCSIDR_NUMSETS_Pos)           /*!< SCB 
 797:Drivers/CMSIS/Include/core_cm7.h **** 
 798:Drivers/CMSIS/Include/core_cm7.h **** #define SCB_CCSIDR_ASSOCIATIVITY_Pos        3U                                            /*!< SCB 
 799:Drivers/CMSIS/Include/core_cm7.h **** #define SCB_CCSIDR_ASSOCIATIVITY_Msk       (0x3FFUL << SCB_CCSIDR_ASSOCIATIVITY_Pos)      /*!< SCB 
 800:Drivers/CMSIS/Include/core_cm7.h **** 
 801:Drivers/CMSIS/Include/core_cm7.h **** #define SCB_CCSIDR_LINESIZE_Pos             0U                                            /*!< SCB 
 802:Drivers/CMSIS/Include/core_cm7.h **** #define SCB_CCSIDR_LINESIZE_Msk            (7UL /*<< SCB_CCSIDR_LINESIZE_Pos*/)           /*!< SCB 
 803:Drivers/CMSIS/Include/core_cm7.h **** 
 804:Drivers/CMSIS/Include/core_cm7.h **** /* SCB Cache Size Selection Register Definitions */
 805:Drivers/CMSIS/Include/core_cm7.h **** #define SCB_CSSELR_LEVEL_Pos                1U                                            /*!< SCB 
 806:Drivers/CMSIS/Include/core_cm7.h **** #define SCB_CSSELR_LEVEL_Msk               (7UL << SCB_CSSELR_LEVEL_Pos)                  /*!< SCB 
 807:Drivers/CMSIS/Include/core_cm7.h **** 
 808:Drivers/CMSIS/Include/core_cm7.h **** #define SCB_CSSELR_IND_Pos                  0U                                            /*!< SCB 
 809:Drivers/CMSIS/Include/core_cm7.h **** #define SCB_CSSELR_IND_Msk                 (1UL /*<< SCB_CSSELR_IND_Pos*/)                /*!< SCB 
 810:Drivers/CMSIS/Include/core_cm7.h **** 
 811:Drivers/CMSIS/Include/core_cm7.h **** /* SCB Software Triggered Interrupt Register Definitions */
 812:Drivers/CMSIS/Include/core_cm7.h **** #define SCB_STIR_INTID_Pos                  0U                                            /*!< SCB 
 813:Drivers/CMSIS/Include/core_cm7.h **** #define SCB_STIR_INTID_Msk                 (0x1FFUL /*<< SCB_STIR_INTID_Pos*/)            /*!< SCB 
 814:Drivers/CMSIS/Include/core_cm7.h **** 
 815:Drivers/CMSIS/Include/core_cm7.h **** /* SCB D-Cache Invalidate by Set-way Register Definitions */
 816:Drivers/CMSIS/Include/core_cm7.h **** #define SCB_DCISW_WAY_Pos                  30U                                            /*!< SCB 
 817:Drivers/CMSIS/Include/core_cm7.h **** #define SCB_DCISW_WAY_Msk                  (3UL << SCB_DCISW_WAY_Pos)                     /*!< SCB 
 818:Drivers/CMSIS/Include/core_cm7.h **** 
 819:Drivers/CMSIS/Include/core_cm7.h **** #define SCB_DCISW_SET_Pos                   5U                                            /*!< SCB 
 820:Drivers/CMSIS/Include/core_cm7.h **** #define SCB_DCISW_SET_Msk                  (0x1FFUL << SCB_DCISW_SET_Pos)                 /*!< SCB 
 821:Drivers/CMSIS/Include/core_cm7.h **** 
 822:Drivers/CMSIS/Include/core_cm7.h **** /* SCB D-Cache Clean by Set-way Register Definitions */
 823:Drivers/CMSIS/Include/core_cm7.h **** #define SCB_DCCSW_WAY_Pos                  30U                                            /*!< SCB 
 824:Drivers/CMSIS/Include/core_cm7.h **** #define SCB_DCCSW_WAY_Msk                  (3UL << SCB_DCCSW_WAY_Pos)                     /*!< SCB 
 825:Drivers/CMSIS/Include/core_cm7.h **** 
 826:Drivers/CMSIS/Include/core_cm7.h **** #define SCB_DCCSW_SET_Pos                   5U                                            /*!< SCB 
 827:Drivers/CMSIS/Include/core_cm7.h **** #define SCB_DCCSW_SET_Msk                  (0x1FFUL << SCB_DCCSW_SET_Pos)                 /*!< SCB 
 828:Drivers/CMSIS/Include/core_cm7.h **** 
 829:Drivers/CMSIS/Include/core_cm7.h **** /* SCB D-Cache Clean and Invalidate by Set-way Register Definitions */
 830:Drivers/CMSIS/Include/core_cm7.h **** #define SCB_DCCISW_WAY_Pos                 30U                                            /*!< SCB 
 831:Drivers/CMSIS/Include/core_cm7.h **** #define SCB_DCCISW_WAY_Msk                 (3UL << SCB_DCCISW_WAY_Pos)                    /*!< SCB 
 832:Drivers/CMSIS/Include/core_cm7.h **** 
 833:Drivers/CMSIS/Include/core_cm7.h **** #define SCB_DCCISW_SET_Pos                  5U                                            /*!< SCB 
 834:Drivers/CMSIS/Include/core_cm7.h **** #define SCB_DCCISW_SET_Msk                 (0x1FFUL << SCB_DCCISW_SET_Pos)                /*!< SCB 
 835:Drivers/CMSIS/Include/core_cm7.h **** 
 836:Drivers/CMSIS/Include/core_cm7.h **** /* Instruction Tightly-Coupled Memory Control Register Definitions */
 837:Drivers/CMSIS/Include/core_cm7.h **** #define SCB_ITCMCR_SZ_Pos                   3U                                            /*!< SCB 
 838:Drivers/CMSIS/Include/core_cm7.h **** #define SCB_ITCMCR_SZ_Msk                  (0xFUL << SCB_ITCMCR_SZ_Pos)                   /*!< SCB 
 839:Drivers/CMSIS/Include/core_cm7.h **** 
 840:Drivers/CMSIS/Include/core_cm7.h **** #define SCB_ITCMCR_RETEN_Pos                2U                                            /*!< SCB 
 841:Drivers/CMSIS/Include/core_cm7.h **** #define SCB_ITCMCR_RETEN_Msk               (1UL << SCB_ITCMCR_RETEN_Pos)                  /*!< SCB 
 842:Drivers/CMSIS/Include/core_cm7.h **** 
 843:Drivers/CMSIS/Include/core_cm7.h **** #define SCB_ITCMCR_RMW_Pos                  1U                                            /*!< SCB 
 844:Drivers/CMSIS/Include/core_cm7.h **** #define SCB_ITCMCR_RMW_Msk                 (1UL << SCB_ITCMCR_RMW_Pos)                    /*!< SCB 
 845:Drivers/CMSIS/Include/core_cm7.h **** 
 846:Drivers/CMSIS/Include/core_cm7.h **** #define SCB_ITCMCR_EN_Pos                   0U                                            /*!< SCB 
 847:Drivers/CMSIS/Include/core_cm7.h **** #define SCB_ITCMCR_EN_Msk                  (1UL /*<< SCB_ITCMCR_EN_Pos*/)                 /*!< SCB 
 848:Drivers/CMSIS/Include/core_cm7.h **** 
 849:Drivers/CMSIS/Include/core_cm7.h **** /* Data Tightly-Coupled Memory Control Register Definitions */
ARM GAS  /var/folders/9y/n02fl3g16gnf7ppy14xghdy80000gn/T//ccscaFA7.s 			page 33


 850:Drivers/CMSIS/Include/core_cm7.h **** #define SCB_DTCMCR_SZ_Pos                   3U                                            /*!< SCB 
 851:Drivers/CMSIS/Include/core_cm7.h **** #define SCB_DTCMCR_SZ_Msk                  (0xFUL << SCB_DTCMCR_SZ_Pos)                   /*!< SCB 
 852:Drivers/CMSIS/Include/core_cm7.h **** 
 853:Drivers/CMSIS/Include/core_cm7.h **** #define SCB_DTCMCR_RETEN_Pos                2U                                            /*!< SCB 
 854:Drivers/CMSIS/Include/core_cm7.h **** #define SCB_DTCMCR_RETEN_Msk               (1UL << SCB_DTCMCR_RETEN_Pos)                   /*!< SCB
 855:Drivers/CMSIS/Include/core_cm7.h **** 
 856:Drivers/CMSIS/Include/core_cm7.h **** #define SCB_DTCMCR_RMW_Pos                  1U                                            /*!< SCB 
 857:Drivers/CMSIS/Include/core_cm7.h **** #define SCB_DTCMCR_RMW_Msk                 (1UL << SCB_DTCMCR_RMW_Pos)                    /*!< SCB 
 858:Drivers/CMSIS/Include/core_cm7.h **** 
 859:Drivers/CMSIS/Include/core_cm7.h **** #define SCB_DTCMCR_EN_Pos                   0U                                            /*!< SCB 
 860:Drivers/CMSIS/Include/core_cm7.h **** #define SCB_DTCMCR_EN_Msk                  (1UL /*<< SCB_DTCMCR_EN_Pos*/)                 /*!< SCB 
 861:Drivers/CMSIS/Include/core_cm7.h **** 
 862:Drivers/CMSIS/Include/core_cm7.h **** /* AHBP Control Register Definitions */
 863:Drivers/CMSIS/Include/core_cm7.h **** #define SCB_AHBPCR_SZ_Pos                   1U                                            /*!< SCB 
 864:Drivers/CMSIS/Include/core_cm7.h **** #define SCB_AHBPCR_SZ_Msk                  (7UL << SCB_AHBPCR_SZ_Pos)                     /*!< SCB 
 865:Drivers/CMSIS/Include/core_cm7.h **** 
 866:Drivers/CMSIS/Include/core_cm7.h **** #define SCB_AHBPCR_EN_Pos                   0U                                            /*!< SCB 
 867:Drivers/CMSIS/Include/core_cm7.h **** #define SCB_AHBPCR_EN_Msk                  (1UL /*<< SCB_AHBPCR_EN_Pos*/)                 /*!< SCB 
 868:Drivers/CMSIS/Include/core_cm7.h **** 
 869:Drivers/CMSIS/Include/core_cm7.h **** /* L1 Cache Control Register Definitions */
 870:Drivers/CMSIS/Include/core_cm7.h **** #define SCB_CACR_FORCEWT_Pos                2U                                            /*!< SCB 
 871:Drivers/CMSIS/Include/core_cm7.h **** #define SCB_CACR_FORCEWT_Msk               (1UL << SCB_CACR_FORCEWT_Pos)                  /*!< SCB 
 872:Drivers/CMSIS/Include/core_cm7.h **** 
 873:Drivers/CMSIS/Include/core_cm7.h **** #define SCB_CACR_ECCEN_Pos                  1U                                            /*!< SCB 
 874:Drivers/CMSIS/Include/core_cm7.h **** #define SCB_CACR_ECCEN_Msk                 (1UL << SCB_CACR_ECCEN_Pos)                    /*!< SCB 
 875:Drivers/CMSIS/Include/core_cm7.h **** 
 876:Drivers/CMSIS/Include/core_cm7.h **** #define SCB_CACR_SIWT_Pos                   0U                                            /*!< SCB 
 877:Drivers/CMSIS/Include/core_cm7.h **** #define SCB_CACR_SIWT_Msk                  (1UL /*<< SCB_CACR_SIWT_Pos*/)                 /*!< SCB 
 878:Drivers/CMSIS/Include/core_cm7.h **** 
 879:Drivers/CMSIS/Include/core_cm7.h **** /* AHBS Control Register Definitions */
 880:Drivers/CMSIS/Include/core_cm7.h **** #define SCB_AHBSCR_INITCOUNT_Pos           11U                                            /*!< SCB 
 881:Drivers/CMSIS/Include/core_cm7.h **** #define SCB_AHBSCR_INITCOUNT_Msk           (0x1FUL << SCB_AHBPCR_INITCOUNT_Pos)           /*!< SCB 
 882:Drivers/CMSIS/Include/core_cm7.h **** 
 883:Drivers/CMSIS/Include/core_cm7.h **** #define SCB_AHBSCR_TPRI_Pos                 2U                                            /*!< SCB 
 884:Drivers/CMSIS/Include/core_cm7.h **** #define SCB_AHBSCR_TPRI_Msk                (0x1FFUL << SCB_AHBPCR_TPRI_Pos)               /*!< SCB 
 885:Drivers/CMSIS/Include/core_cm7.h **** 
 886:Drivers/CMSIS/Include/core_cm7.h **** #define SCB_AHBSCR_CTL_Pos                  0U                                            /*!< SCB 
 887:Drivers/CMSIS/Include/core_cm7.h **** #define SCB_AHBSCR_CTL_Msk                 (3UL /*<< SCB_AHBPCR_CTL_Pos*/)                /*!< SCB 
 888:Drivers/CMSIS/Include/core_cm7.h **** 
 889:Drivers/CMSIS/Include/core_cm7.h **** /* Auxiliary Bus Fault Status Register Definitions */
 890:Drivers/CMSIS/Include/core_cm7.h **** #define SCB_ABFSR_AXIMTYPE_Pos              8U                                            /*!< SCB 
 891:Drivers/CMSIS/Include/core_cm7.h **** #define SCB_ABFSR_AXIMTYPE_Msk             (3UL << SCB_ABFSR_AXIMTYPE_Pos)                /*!< SCB 
 892:Drivers/CMSIS/Include/core_cm7.h **** 
 893:Drivers/CMSIS/Include/core_cm7.h **** #define SCB_ABFSR_EPPB_Pos                  4U                                            /*!< SCB 
 894:Drivers/CMSIS/Include/core_cm7.h **** #define SCB_ABFSR_EPPB_Msk                 (1UL << SCB_ABFSR_EPPB_Pos)                    /*!< SCB 
 895:Drivers/CMSIS/Include/core_cm7.h **** 
 896:Drivers/CMSIS/Include/core_cm7.h **** #define SCB_ABFSR_AXIM_Pos                  3U                                            /*!< SCB 
 897:Drivers/CMSIS/Include/core_cm7.h **** #define SCB_ABFSR_AXIM_Msk                 (1UL << SCB_ABFSR_AXIM_Pos)                    /*!< SCB 
 898:Drivers/CMSIS/Include/core_cm7.h **** 
 899:Drivers/CMSIS/Include/core_cm7.h **** #define SCB_ABFSR_AHBP_Pos                  2U                                            /*!< SCB 
 900:Drivers/CMSIS/Include/core_cm7.h **** #define SCB_ABFSR_AHBP_Msk                 (1UL << SCB_ABFSR_AHBP_Pos)                    /*!< SCB 
 901:Drivers/CMSIS/Include/core_cm7.h **** 
 902:Drivers/CMSIS/Include/core_cm7.h **** #define SCB_ABFSR_DTCM_Pos                  1U                                            /*!< SCB 
 903:Drivers/CMSIS/Include/core_cm7.h **** #define SCB_ABFSR_DTCM_Msk                 (1UL << SCB_ABFSR_DTCM_Pos)                    /*!< SCB 
 904:Drivers/CMSIS/Include/core_cm7.h **** 
 905:Drivers/CMSIS/Include/core_cm7.h **** #define SCB_ABFSR_ITCM_Pos                  0U                                            /*!< SCB 
 906:Drivers/CMSIS/Include/core_cm7.h **** #define SCB_ABFSR_ITCM_Msk                 (1UL /*<< SCB_ABFSR_ITCM_Pos*/)                /*!< SCB 
ARM GAS  /var/folders/9y/n02fl3g16gnf7ppy14xghdy80000gn/T//ccscaFA7.s 			page 34


 907:Drivers/CMSIS/Include/core_cm7.h **** 
 908:Drivers/CMSIS/Include/core_cm7.h **** /*@} end of group CMSIS_SCB */
 909:Drivers/CMSIS/Include/core_cm7.h **** 
 910:Drivers/CMSIS/Include/core_cm7.h **** 
 911:Drivers/CMSIS/Include/core_cm7.h **** /**
 912:Drivers/CMSIS/Include/core_cm7.h ****   \ingroup  CMSIS_core_register
 913:Drivers/CMSIS/Include/core_cm7.h ****   \defgroup CMSIS_SCnSCB System Controls not in SCB (SCnSCB)
 914:Drivers/CMSIS/Include/core_cm7.h ****   \brief    Type definitions for the System Control and ID Register not in the SCB
 915:Drivers/CMSIS/Include/core_cm7.h ****   @{
 916:Drivers/CMSIS/Include/core_cm7.h ****  */
 917:Drivers/CMSIS/Include/core_cm7.h **** 
 918:Drivers/CMSIS/Include/core_cm7.h **** /**
 919:Drivers/CMSIS/Include/core_cm7.h ****   \brief  Structure type to access the System Control and ID Register not in the SCB.
 920:Drivers/CMSIS/Include/core_cm7.h ****  */
 921:Drivers/CMSIS/Include/core_cm7.h **** typedef struct
 922:Drivers/CMSIS/Include/core_cm7.h **** {
 923:Drivers/CMSIS/Include/core_cm7.h ****         uint32_t RESERVED0[1U];
 924:Drivers/CMSIS/Include/core_cm7.h ****   __IM  uint32_t ICTR;                   /*!< Offset: 0x004 (R/ )  Interrupt Controller Type Regist
 925:Drivers/CMSIS/Include/core_cm7.h ****   __IOM uint32_t ACTLR;                  /*!< Offset: 0x008 (R/W)  Auxiliary Control Register */
 926:Drivers/CMSIS/Include/core_cm7.h **** } SCnSCB_Type;
 927:Drivers/CMSIS/Include/core_cm7.h **** 
 928:Drivers/CMSIS/Include/core_cm7.h **** /* Interrupt Controller Type Register Definitions */
 929:Drivers/CMSIS/Include/core_cm7.h **** #define SCnSCB_ICTR_INTLINESNUM_Pos         0U                                         /*!< ICTR: I
 930:Drivers/CMSIS/Include/core_cm7.h **** #define SCnSCB_ICTR_INTLINESNUM_Msk        (0xFUL /*<< SCnSCB_ICTR_INTLINESNUM_Pos*/)  /*!< ICTR: I
 931:Drivers/CMSIS/Include/core_cm7.h **** 
 932:Drivers/CMSIS/Include/core_cm7.h **** /* Auxiliary Control Register Definitions */
 933:Drivers/CMSIS/Include/core_cm7.h **** #define SCnSCB_ACTLR_DISITMATBFLUSH_Pos    12U                                         /*!< ACTLR: 
 934:Drivers/CMSIS/Include/core_cm7.h **** #define SCnSCB_ACTLR_DISITMATBFLUSH_Msk    (1UL << SCnSCB_ACTLR_DISITMATBFLUSH_Pos)    /*!< ACTLR: 
 935:Drivers/CMSIS/Include/core_cm7.h **** 
 936:Drivers/CMSIS/Include/core_cm7.h **** #define SCnSCB_ACTLR_DISRAMODE_Pos         11U                                         /*!< ACTLR: 
 937:Drivers/CMSIS/Include/core_cm7.h **** #define SCnSCB_ACTLR_DISRAMODE_Msk         (1UL << SCnSCB_ACTLR_DISRAMODE_Pos)         /*!< ACTLR: 
 938:Drivers/CMSIS/Include/core_cm7.h **** 
 939:Drivers/CMSIS/Include/core_cm7.h **** #define SCnSCB_ACTLR_FPEXCODIS_Pos         10U                                         /*!< ACTLR: 
 940:Drivers/CMSIS/Include/core_cm7.h **** #define SCnSCB_ACTLR_FPEXCODIS_Msk         (1UL << SCnSCB_ACTLR_FPEXCODIS_Pos)         /*!< ACTLR: 
 941:Drivers/CMSIS/Include/core_cm7.h **** 
 942:Drivers/CMSIS/Include/core_cm7.h **** #define SCnSCB_ACTLR_DISFOLD_Pos            2U                                         /*!< ACTLR: 
 943:Drivers/CMSIS/Include/core_cm7.h **** #define SCnSCB_ACTLR_DISFOLD_Msk           (1UL << SCnSCB_ACTLR_DISFOLD_Pos)           /*!< ACTLR: 
 944:Drivers/CMSIS/Include/core_cm7.h **** 
 945:Drivers/CMSIS/Include/core_cm7.h **** #define SCnSCB_ACTLR_DISMCYCINT_Pos         0U                                         /*!< ACTLR: 
 946:Drivers/CMSIS/Include/core_cm7.h **** #define SCnSCB_ACTLR_DISMCYCINT_Msk        (1UL /*<< SCnSCB_ACTLR_DISMCYCINT_Pos*/)    /*!< ACTLR: 
 947:Drivers/CMSIS/Include/core_cm7.h **** 
 948:Drivers/CMSIS/Include/core_cm7.h **** /*@} end of group CMSIS_SCnotSCB */
 949:Drivers/CMSIS/Include/core_cm7.h **** 
 950:Drivers/CMSIS/Include/core_cm7.h **** 
 951:Drivers/CMSIS/Include/core_cm7.h **** /**
 952:Drivers/CMSIS/Include/core_cm7.h ****   \ingroup  CMSIS_core_register
 953:Drivers/CMSIS/Include/core_cm7.h ****   \defgroup CMSIS_SysTick     System Tick Timer (SysTick)
 954:Drivers/CMSIS/Include/core_cm7.h ****   \brief    Type definitions for the System Timer Registers.
 955:Drivers/CMSIS/Include/core_cm7.h ****   @{
 956:Drivers/CMSIS/Include/core_cm7.h ****  */
 957:Drivers/CMSIS/Include/core_cm7.h **** 
 958:Drivers/CMSIS/Include/core_cm7.h **** /**
 959:Drivers/CMSIS/Include/core_cm7.h ****   \brief  Structure type to access the System Timer (SysTick).
 960:Drivers/CMSIS/Include/core_cm7.h ****  */
 961:Drivers/CMSIS/Include/core_cm7.h **** typedef struct
 962:Drivers/CMSIS/Include/core_cm7.h **** {
 963:Drivers/CMSIS/Include/core_cm7.h ****   __IOM uint32_t CTRL;                   /*!< Offset: 0x000 (R/W)  SysTick Control and Status Regis
ARM GAS  /var/folders/9y/n02fl3g16gnf7ppy14xghdy80000gn/T//ccscaFA7.s 			page 35


 964:Drivers/CMSIS/Include/core_cm7.h ****   __IOM uint32_t LOAD;                   /*!< Offset: 0x004 (R/W)  SysTick Reload Value Register */
 965:Drivers/CMSIS/Include/core_cm7.h ****   __IOM uint32_t VAL;                    /*!< Offset: 0x008 (R/W)  SysTick Current Value Register *
 966:Drivers/CMSIS/Include/core_cm7.h ****   __IM  uint32_t CALIB;                  /*!< Offset: 0x00C (R/ )  SysTick Calibration Register */
 967:Drivers/CMSIS/Include/core_cm7.h **** } SysTick_Type;
 968:Drivers/CMSIS/Include/core_cm7.h **** 
 969:Drivers/CMSIS/Include/core_cm7.h **** /* SysTick Control / Status Register Definitions */
 970:Drivers/CMSIS/Include/core_cm7.h **** #define SysTick_CTRL_COUNTFLAG_Pos         16U                                            /*!< SysT
 971:Drivers/CMSIS/Include/core_cm7.h **** #define SysTick_CTRL_COUNTFLAG_Msk         (1UL << SysTick_CTRL_COUNTFLAG_Pos)            /*!< SysT
 972:Drivers/CMSIS/Include/core_cm7.h **** 
 973:Drivers/CMSIS/Include/core_cm7.h **** #define SysTick_CTRL_CLKSOURCE_Pos          2U                                            /*!< SysT
 974:Drivers/CMSIS/Include/core_cm7.h **** #define SysTick_CTRL_CLKSOURCE_Msk         (1UL << SysTick_CTRL_CLKSOURCE_Pos)            /*!< SysT
 975:Drivers/CMSIS/Include/core_cm7.h **** 
 976:Drivers/CMSIS/Include/core_cm7.h **** #define SysTick_CTRL_TICKINT_Pos            1U                                            /*!< SysT
 977:Drivers/CMSIS/Include/core_cm7.h **** #define SysTick_CTRL_TICKINT_Msk           (1UL << SysTick_CTRL_TICKINT_Pos)              /*!< SysT
 978:Drivers/CMSIS/Include/core_cm7.h **** 
 979:Drivers/CMSIS/Include/core_cm7.h **** #define SysTick_CTRL_ENABLE_Pos             0U                                            /*!< SysT
 980:Drivers/CMSIS/Include/core_cm7.h **** #define SysTick_CTRL_ENABLE_Msk            (1UL /*<< SysTick_CTRL_ENABLE_Pos*/)           /*!< SysT
 981:Drivers/CMSIS/Include/core_cm7.h **** 
 982:Drivers/CMSIS/Include/core_cm7.h **** /* SysTick Reload Register Definitions */
 983:Drivers/CMSIS/Include/core_cm7.h **** #define SysTick_LOAD_RELOAD_Pos             0U                                            /*!< SysT
 984:Drivers/CMSIS/Include/core_cm7.h **** #define SysTick_LOAD_RELOAD_Msk            (0xFFFFFFUL /*<< SysTick_LOAD_RELOAD_Pos*/)    /*!< SysT
 985:Drivers/CMSIS/Include/core_cm7.h **** 
 986:Drivers/CMSIS/Include/core_cm7.h **** /* SysTick Current Register Definitions */
 987:Drivers/CMSIS/Include/core_cm7.h **** #define SysTick_VAL_CURRENT_Pos             0U                                            /*!< SysT
 988:Drivers/CMSIS/Include/core_cm7.h **** #define SysTick_VAL_CURRENT_Msk            (0xFFFFFFUL /*<< SysTick_VAL_CURRENT_Pos*/)    /*!< SysT
 989:Drivers/CMSIS/Include/core_cm7.h **** 
 990:Drivers/CMSIS/Include/core_cm7.h **** /* SysTick Calibration Register Definitions */
 991:Drivers/CMSIS/Include/core_cm7.h **** #define SysTick_CALIB_NOREF_Pos            31U                                            /*!< SysT
 992:Drivers/CMSIS/Include/core_cm7.h **** #define SysTick_CALIB_NOREF_Msk            (1UL << SysTick_CALIB_NOREF_Pos)               /*!< SysT
 993:Drivers/CMSIS/Include/core_cm7.h **** 
 994:Drivers/CMSIS/Include/core_cm7.h **** #define SysTick_CALIB_SKEW_Pos             30U                                            /*!< SysT
 995:Drivers/CMSIS/Include/core_cm7.h **** #define SysTick_CALIB_SKEW_Msk             (1UL << SysTick_CALIB_SKEW_Pos)                /*!< SysT
 996:Drivers/CMSIS/Include/core_cm7.h **** 
 997:Drivers/CMSIS/Include/core_cm7.h **** #define SysTick_CALIB_TENMS_Pos             0U                                            /*!< SysT
 998:Drivers/CMSIS/Include/core_cm7.h **** #define SysTick_CALIB_TENMS_Msk            (0xFFFFFFUL /*<< SysTick_CALIB_TENMS_Pos*/)    /*!< SysT
 999:Drivers/CMSIS/Include/core_cm7.h **** 
1000:Drivers/CMSIS/Include/core_cm7.h **** /*@} end of group CMSIS_SysTick */
1001:Drivers/CMSIS/Include/core_cm7.h **** 
1002:Drivers/CMSIS/Include/core_cm7.h **** 
1003:Drivers/CMSIS/Include/core_cm7.h **** /**
1004:Drivers/CMSIS/Include/core_cm7.h ****   \ingroup  CMSIS_core_register
1005:Drivers/CMSIS/Include/core_cm7.h ****   \defgroup CMSIS_ITM     Instrumentation Trace Macrocell (ITM)
1006:Drivers/CMSIS/Include/core_cm7.h ****   \brief    Type definitions for the Instrumentation Trace Macrocell (ITM)
1007:Drivers/CMSIS/Include/core_cm7.h ****   @{
1008:Drivers/CMSIS/Include/core_cm7.h ****  */
1009:Drivers/CMSIS/Include/core_cm7.h **** 
1010:Drivers/CMSIS/Include/core_cm7.h **** /**
1011:Drivers/CMSIS/Include/core_cm7.h ****   \brief  Structure type to access the Instrumentation Trace Macrocell Register (ITM).
1012:Drivers/CMSIS/Include/core_cm7.h ****  */
1013:Drivers/CMSIS/Include/core_cm7.h **** typedef struct
1014:Drivers/CMSIS/Include/core_cm7.h **** {
1015:Drivers/CMSIS/Include/core_cm7.h ****   __OM  union
1016:Drivers/CMSIS/Include/core_cm7.h ****   {
1017:Drivers/CMSIS/Include/core_cm7.h ****     __OM  uint8_t    u8;                 /*!< Offset: 0x000 ( /W)  ITM Stimulus Port 8-bit */
1018:Drivers/CMSIS/Include/core_cm7.h ****     __OM  uint16_t   u16;                /*!< Offset: 0x000 ( /W)  ITM Stimulus Port 16-bit */
1019:Drivers/CMSIS/Include/core_cm7.h ****     __OM  uint32_t   u32;                /*!< Offset: 0x000 ( /W)  ITM Stimulus Port 32-bit */
1020:Drivers/CMSIS/Include/core_cm7.h ****   }  PORT [32U];                         /*!< Offset: 0x000 ( /W)  ITM Stimulus Port Registers */
ARM GAS  /var/folders/9y/n02fl3g16gnf7ppy14xghdy80000gn/T//ccscaFA7.s 			page 36


1021:Drivers/CMSIS/Include/core_cm7.h ****         uint32_t RESERVED0[864U];
1022:Drivers/CMSIS/Include/core_cm7.h ****   __IOM uint32_t TER;                    /*!< Offset: 0xE00 (R/W)  ITM Trace Enable Register */
1023:Drivers/CMSIS/Include/core_cm7.h ****         uint32_t RESERVED1[15U];
1024:Drivers/CMSIS/Include/core_cm7.h ****   __IOM uint32_t TPR;                    /*!< Offset: 0xE40 (R/W)  ITM Trace Privilege Register */
1025:Drivers/CMSIS/Include/core_cm7.h ****         uint32_t RESERVED2[15U];
1026:Drivers/CMSIS/Include/core_cm7.h ****   __IOM uint32_t TCR;                    /*!< Offset: 0xE80 (R/W)  ITM Trace Control Register */
1027:Drivers/CMSIS/Include/core_cm7.h ****         uint32_t RESERVED3[29U];
1028:Drivers/CMSIS/Include/core_cm7.h ****   __OM  uint32_t IWR;                    /*!< Offset: 0xEF8 ( /W)  ITM Integration Write Register *
1029:Drivers/CMSIS/Include/core_cm7.h ****   __IM  uint32_t IRR;                    /*!< Offset: 0xEFC (R/ )  ITM Integration Read Register */
1030:Drivers/CMSIS/Include/core_cm7.h ****   __IOM uint32_t IMCR;                   /*!< Offset: 0xF00 (R/W)  ITM Integration Mode Control Reg
1031:Drivers/CMSIS/Include/core_cm7.h ****         uint32_t RESERVED4[43U];
1032:Drivers/CMSIS/Include/core_cm7.h ****   __OM  uint32_t LAR;                    /*!< Offset: 0xFB0 ( /W)  ITM Lock Access Register */
1033:Drivers/CMSIS/Include/core_cm7.h ****   __IM  uint32_t LSR;                    /*!< Offset: 0xFB4 (R/ )  ITM Lock Status Register */
1034:Drivers/CMSIS/Include/core_cm7.h ****         uint32_t RESERVED5[6U];
1035:Drivers/CMSIS/Include/core_cm7.h ****   __IM  uint32_t PID4;                   /*!< Offset: 0xFD0 (R/ )  ITM Peripheral Identification Re
1036:Drivers/CMSIS/Include/core_cm7.h ****   __IM  uint32_t PID5;                   /*!< Offset: 0xFD4 (R/ )  ITM Peripheral Identification Re
1037:Drivers/CMSIS/Include/core_cm7.h ****   __IM  uint32_t PID6;                   /*!< Offset: 0xFD8 (R/ )  ITM Peripheral Identification Re
1038:Drivers/CMSIS/Include/core_cm7.h ****   __IM  uint32_t PID7;                   /*!< Offset: 0xFDC (R/ )  ITM Peripheral Identification Re
1039:Drivers/CMSIS/Include/core_cm7.h ****   __IM  uint32_t PID0;                   /*!< Offset: 0xFE0 (R/ )  ITM Peripheral Identification Re
1040:Drivers/CMSIS/Include/core_cm7.h ****   __IM  uint32_t PID1;                   /*!< Offset: 0xFE4 (R/ )  ITM Peripheral Identification Re
1041:Drivers/CMSIS/Include/core_cm7.h ****   __IM  uint32_t PID2;                   /*!< Offset: 0xFE8 (R/ )  ITM Peripheral Identification Re
1042:Drivers/CMSIS/Include/core_cm7.h ****   __IM  uint32_t PID3;                   /*!< Offset: 0xFEC (R/ )  ITM Peripheral Identification Re
1043:Drivers/CMSIS/Include/core_cm7.h ****   __IM  uint32_t CID0;                   /*!< Offset: 0xFF0 (R/ )  ITM Component  Identification Re
1044:Drivers/CMSIS/Include/core_cm7.h ****   __IM  uint32_t CID1;                   /*!< Offset: 0xFF4 (R/ )  ITM Component  Identification Re
1045:Drivers/CMSIS/Include/core_cm7.h ****   __IM  uint32_t CID2;                   /*!< Offset: 0xFF8 (R/ )  ITM Component  Identification Re
1046:Drivers/CMSIS/Include/core_cm7.h ****   __IM  uint32_t CID3;                   /*!< Offset: 0xFFC (R/ )  ITM Component  Identification Re
1047:Drivers/CMSIS/Include/core_cm7.h **** } ITM_Type;
1048:Drivers/CMSIS/Include/core_cm7.h **** 
1049:Drivers/CMSIS/Include/core_cm7.h **** /* ITM Trace Privilege Register Definitions */
1050:Drivers/CMSIS/Include/core_cm7.h **** #define ITM_TPR_PRIVMASK_Pos                0U                                            /*!< ITM 
1051:Drivers/CMSIS/Include/core_cm7.h **** #define ITM_TPR_PRIVMASK_Msk               (0xFFFFFFFFUL /*<< ITM_TPR_PRIVMASK_Pos*/)     /*!< ITM 
1052:Drivers/CMSIS/Include/core_cm7.h **** 
1053:Drivers/CMSIS/Include/core_cm7.h **** /* ITM Trace Control Register Definitions */
1054:Drivers/CMSIS/Include/core_cm7.h **** #define ITM_TCR_BUSY_Pos                   23U                                            /*!< ITM 
1055:Drivers/CMSIS/Include/core_cm7.h **** #define ITM_TCR_BUSY_Msk                   (1UL << ITM_TCR_BUSY_Pos)                      /*!< ITM 
1056:Drivers/CMSIS/Include/core_cm7.h **** 
1057:Drivers/CMSIS/Include/core_cm7.h **** #define ITM_TCR_TraceBusID_Pos             16U                                            /*!< ITM 
1058:Drivers/CMSIS/Include/core_cm7.h **** #define ITM_TCR_TraceBusID_Msk             (0x7FUL << ITM_TCR_TraceBusID_Pos)             /*!< ITM 
1059:Drivers/CMSIS/Include/core_cm7.h **** 
1060:Drivers/CMSIS/Include/core_cm7.h **** #define ITM_TCR_GTSFREQ_Pos                10U                                            /*!< ITM 
1061:Drivers/CMSIS/Include/core_cm7.h **** #define ITM_TCR_GTSFREQ_Msk                (3UL << ITM_TCR_GTSFREQ_Pos)                   /*!< ITM 
1062:Drivers/CMSIS/Include/core_cm7.h **** 
1063:Drivers/CMSIS/Include/core_cm7.h **** #define ITM_TCR_TSPrescale_Pos              8U                                            /*!< ITM 
1064:Drivers/CMSIS/Include/core_cm7.h **** #define ITM_TCR_TSPrescale_Msk             (3UL << ITM_TCR_TSPrescale_Pos)                /*!< ITM 
1065:Drivers/CMSIS/Include/core_cm7.h **** 
1066:Drivers/CMSIS/Include/core_cm7.h **** #define ITM_TCR_SWOENA_Pos                  4U                                            /*!< ITM 
1067:Drivers/CMSIS/Include/core_cm7.h **** #define ITM_TCR_SWOENA_Msk                 (1UL << ITM_TCR_SWOENA_Pos)                    /*!< ITM 
1068:Drivers/CMSIS/Include/core_cm7.h **** 
1069:Drivers/CMSIS/Include/core_cm7.h **** #define ITM_TCR_DWTENA_Pos                  3U                                            /*!< ITM 
1070:Drivers/CMSIS/Include/core_cm7.h **** #define ITM_TCR_DWTENA_Msk                 (1UL << ITM_TCR_DWTENA_Pos)                    /*!< ITM 
1071:Drivers/CMSIS/Include/core_cm7.h **** 
1072:Drivers/CMSIS/Include/core_cm7.h **** #define ITM_TCR_SYNCENA_Pos                 2U                                            /*!< ITM 
1073:Drivers/CMSIS/Include/core_cm7.h **** #define ITM_TCR_SYNCENA_Msk                (1UL << ITM_TCR_SYNCENA_Pos)                   /*!< ITM 
1074:Drivers/CMSIS/Include/core_cm7.h **** 
1075:Drivers/CMSIS/Include/core_cm7.h **** #define ITM_TCR_TSENA_Pos                   1U                                            /*!< ITM 
1076:Drivers/CMSIS/Include/core_cm7.h **** #define ITM_TCR_TSENA_Msk                  (1UL << ITM_TCR_TSENA_Pos)                     /*!< ITM 
1077:Drivers/CMSIS/Include/core_cm7.h **** 
ARM GAS  /var/folders/9y/n02fl3g16gnf7ppy14xghdy80000gn/T//ccscaFA7.s 			page 37


1078:Drivers/CMSIS/Include/core_cm7.h **** #define ITM_TCR_ITMENA_Pos                  0U                                            /*!< ITM 
1079:Drivers/CMSIS/Include/core_cm7.h **** #define ITM_TCR_ITMENA_Msk                 (1UL /*<< ITM_TCR_ITMENA_Pos*/)                /*!< ITM 
1080:Drivers/CMSIS/Include/core_cm7.h **** 
1081:Drivers/CMSIS/Include/core_cm7.h **** /* ITM Integration Write Register Definitions */
1082:Drivers/CMSIS/Include/core_cm7.h **** #define ITM_IWR_ATVALIDM_Pos                0U                                            /*!< ITM 
1083:Drivers/CMSIS/Include/core_cm7.h **** #define ITM_IWR_ATVALIDM_Msk               (1UL /*<< ITM_IWR_ATVALIDM_Pos*/)              /*!< ITM 
1084:Drivers/CMSIS/Include/core_cm7.h **** 
1085:Drivers/CMSIS/Include/core_cm7.h **** /* ITM Integration Read Register Definitions */
1086:Drivers/CMSIS/Include/core_cm7.h **** #define ITM_IRR_ATREADYM_Pos                0U                                            /*!< ITM 
1087:Drivers/CMSIS/Include/core_cm7.h **** #define ITM_IRR_ATREADYM_Msk               (1UL /*<< ITM_IRR_ATREADYM_Pos*/)              /*!< ITM 
1088:Drivers/CMSIS/Include/core_cm7.h **** 
1089:Drivers/CMSIS/Include/core_cm7.h **** /* ITM Integration Mode Control Register Definitions */
1090:Drivers/CMSIS/Include/core_cm7.h **** #define ITM_IMCR_INTEGRATION_Pos            0U                                            /*!< ITM 
1091:Drivers/CMSIS/Include/core_cm7.h **** #define ITM_IMCR_INTEGRATION_Msk           (1UL /*<< ITM_IMCR_INTEGRATION_Pos*/)          /*!< ITM 
1092:Drivers/CMSIS/Include/core_cm7.h **** 
1093:Drivers/CMSIS/Include/core_cm7.h **** /* ITM Lock Status Register Definitions */
1094:Drivers/CMSIS/Include/core_cm7.h **** #define ITM_LSR_ByteAcc_Pos                 2U                                            /*!< ITM 
1095:Drivers/CMSIS/Include/core_cm7.h **** #define ITM_LSR_ByteAcc_Msk                (1UL << ITM_LSR_ByteAcc_Pos)                   /*!< ITM 
1096:Drivers/CMSIS/Include/core_cm7.h **** 
1097:Drivers/CMSIS/Include/core_cm7.h **** #define ITM_LSR_Access_Pos                  1U                                            /*!< ITM 
1098:Drivers/CMSIS/Include/core_cm7.h **** #define ITM_LSR_Access_Msk                 (1UL << ITM_LSR_Access_Pos)                    /*!< ITM 
1099:Drivers/CMSIS/Include/core_cm7.h **** 
1100:Drivers/CMSIS/Include/core_cm7.h **** #define ITM_LSR_Present_Pos                 0U                                            /*!< ITM 
1101:Drivers/CMSIS/Include/core_cm7.h **** #define ITM_LSR_Present_Msk                (1UL /*<< ITM_LSR_Present_Pos*/)               /*!< ITM 
1102:Drivers/CMSIS/Include/core_cm7.h **** 
1103:Drivers/CMSIS/Include/core_cm7.h **** /*@}*/ /* end of group CMSIS_ITM */
1104:Drivers/CMSIS/Include/core_cm7.h **** 
1105:Drivers/CMSIS/Include/core_cm7.h **** 
1106:Drivers/CMSIS/Include/core_cm7.h **** /**
1107:Drivers/CMSIS/Include/core_cm7.h ****   \ingroup  CMSIS_core_register
1108:Drivers/CMSIS/Include/core_cm7.h ****   \defgroup CMSIS_DWT     Data Watchpoint and Trace (DWT)
1109:Drivers/CMSIS/Include/core_cm7.h ****   \brief    Type definitions for the Data Watchpoint and Trace (DWT)
1110:Drivers/CMSIS/Include/core_cm7.h ****   @{
1111:Drivers/CMSIS/Include/core_cm7.h ****  */
1112:Drivers/CMSIS/Include/core_cm7.h **** 
1113:Drivers/CMSIS/Include/core_cm7.h **** /**
1114:Drivers/CMSIS/Include/core_cm7.h ****   \brief  Structure type to access the Data Watchpoint and Trace Register (DWT).
1115:Drivers/CMSIS/Include/core_cm7.h ****  */
1116:Drivers/CMSIS/Include/core_cm7.h **** typedef struct
1117:Drivers/CMSIS/Include/core_cm7.h **** {
1118:Drivers/CMSIS/Include/core_cm7.h ****   __IOM uint32_t CTRL;                   /*!< Offset: 0x000 (R/W)  Control Register */
1119:Drivers/CMSIS/Include/core_cm7.h ****   __IOM uint32_t CYCCNT;                 /*!< Offset: 0x004 (R/W)  Cycle Count Register */
1120:Drivers/CMSIS/Include/core_cm7.h ****   __IOM uint32_t CPICNT;                 /*!< Offset: 0x008 (R/W)  CPI Count Register */
1121:Drivers/CMSIS/Include/core_cm7.h ****   __IOM uint32_t EXCCNT;                 /*!< Offset: 0x00C (R/W)  Exception Overhead Count Registe
1122:Drivers/CMSIS/Include/core_cm7.h ****   __IOM uint32_t SLEEPCNT;               /*!< Offset: 0x010 (R/W)  Sleep Count Register */
1123:Drivers/CMSIS/Include/core_cm7.h ****   __IOM uint32_t LSUCNT;                 /*!< Offset: 0x014 (R/W)  LSU Count Register */
1124:Drivers/CMSIS/Include/core_cm7.h ****   __IOM uint32_t FOLDCNT;                /*!< Offset: 0x018 (R/W)  Folded-instruction Count Registe
1125:Drivers/CMSIS/Include/core_cm7.h ****   __IM  uint32_t PCSR;                   /*!< Offset: 0x01C (R/ )  Program Counter Sample Register 
1126:Drivers/CMSIS/Include/core_cm7.h ****   __IOM uint32_t COMP0;                  /*!< Offset: 0x020 (R/W)  Comparator Register 0 */
1127:Drivers/CMSIS/Include/core_cm7.h ****   __IOM uint32_t MASK0;                  /*!< Offset: 0x024 (R/W)  Mask Register 0 */
1128:Drivers/CMSIS/Include/core_cm7.h ****   __IOM uint32_t FUNCTION0;              /*!< Offset: 0x028 (R/W)  Function Register 0 */
1129:Drivers/CMSIS/Include/core_cm7.h ****         uint32_t RESERVED0[1U];
1130:Drivers/CMSIS/Include/core_cm7.h ****   __IOM uint32_t COMP1;                  /*!< Offset: 0x030 (R/W)  Comparator Register 1 */
1131:Drivers/CMSIS/Include/core_cm7.h ****   __IOM uint32_t MASK1;                  /*!< Offset: 0x034 (R/W)  Mask Register 1 */
1132:Drivers/CMSIS/Include/core_cm7.h ****   __IOM uint32_t FUNCTION1;              /*!< Offset: 0x038 (R/W)  Function Register 1 */
1133:Drivers/CMSIS/Include/core_cm7.h ****         uint32_t RESERVED1[1U];
1134:Drivers/CMSIS/Include/core_cm7.h ****   __IOM uint32_t COMP2;                  /*!< Offset: 0x040 (R/W)  Comparator Register 2 */
ARM GAS  /var/folders/9y/n02fl3g16gnf7ppy14xghdy80000gn/T//ccscaFA7.s 			page 38


1135:Drivers/CMSIS/Include/core_cm7.h ****   __IOM uint32_t MASK2;                  /*!< Offset: 0x044 (R/W)  Mask Register 2 */
1136:Drivers/CMSIS/Include/core_cm7.h ****   __IOM uint32_t FUNCTION2;              /*!< Offset: 0x048 (R/W)  Function Register 2 */
1137:Drivers/CMSIS/Include/core_cm7.h ****         uint32_t RESERVED2[1U];
1138:Drivers/CMSIS/Include/core_cm7.h ****   __IOM uint32_t COMP3;                  /*!< Offset: 0x050 (R/W)  Comparator Register 3 */
1139:Drivers/CMSIS/Include/core_cm7.h ****   __IOM uint32_t MASK3;                  /*!< Offset: 0x054 (R/W)  Mask Register 3 */
1140:Drivers/CMSIS/Include/core_cm7.h ****   __IOM uint32_t FUNCTION3;              /*!< Offset: 0x058 (R/W)  Function Register 3 */
1141:Drivers/CMSIS/Include/core_cm7.h ****         uint32_t RESERVED3[981U];
1142:Drivers/CMSIS/Include/core_cm7.h ****   __OM  uint32_t LAR;                    /*!< Offset: 0xFB0 (  W)  Lock Access Register */
1143:Drivers/CMSIS/Include/core_cm7.h ****   __IM  uint32_t LSR;                    /*!< Offset: 0xFB4 (R  )  Lock Status Register */
1144:Drivers/CMSIS/Include/core_cm7.h **** } DWT_Type;
1145:Drivers/CMSIS/Include/core_cm7.h **** 
1146:Drivers/CMSIS/Include/core_cm7.h **** /* DWT Control Register Definitions */
1147:Drivers/CMSIS/Include/core_cm7.h **** #define DWT_CTRL_NUMCOMP_Pos               28U                                         /*!< DWT CTR
1148:Drivers/CMSIS/Include/core_cm7.h **** #define DWT_CTRL_NUMCOMP_Msk               (0xFUL << DWT_CTRL_NUMCOMP_Pos)             /*!< DWT CTR
1149:Drivers/CMSIS/Include/core_cm7.h **** 
1150:Drivers/CMSIS/Include/core_cm7.h **** #define DWT_CTRL_NOTRCPKT_Pos              27U                                         /*!< DWT CTR
1151:Drivers/CMSIS/Include/core_cm7.h **** #define DWT_CTRL_NOTRCPKT_Msk              (0x1UL << DWT_CTRL_NOTRCPKT_Pos)            /*!< DWT CTR
1152:Drivers/CMSIS/Include/core_cm7.h **** 
1153:Drivers/CMSIS/Include/core_cm7.h **** #define DWT_CTRL_NOEXTTRIG_Pos             26U                                         /*!< DWT CTR
1154:Drivers/CMSIS/Include/core_cm7.h **** #define DWT_CTRL_NOEXTTRIG_Msk             (0x1UL << DWT_CTRL_NOEXTTRIG_Pos)           /*!< DWT CTR
1155:Drivers/CMSIS/Include/core_cm7.h **** 
1156:Drivers/CMSIS/Include/core_cm7.h **** #define DWT_CTRL_NOCYCCNT_Pos              25U                                         /*!< DWT CTR
1157:Drivers/CMSIS/Include/core_cm7.h **** #define DWT_CTRL_NOCYCCNT_Msk              (0x1UL << DWT_CTRL_NOCYCCNT_Pos)            /*!< DWT CTR
1158:Drivers/CMSIS/Include/core_cm7.h **** 
1159:Drivers/CMSIS/Include/core_cm7.h **** #define DWT_CTRL_NOPRFCNT_Pos              24U                                         /*!< DWT CTR
1160:Drivers/CMSIS/Include/core_cm7.h **** #define DWT_CTRL_NOPRFCNT_Msk              (0x1UL << DWT_CTRL_NOPRFCNT_Pos)            /*!< DWT CTR
1161:Drivers/CMSIS/Include/core_cm7.h **** 
1162:Drivers/CMSIS/Include/core_cm7.h **** #define DWT_CTRL_CYCEVTENA_Pos             22U                                         /*!< DWT CTR
1163:Drivers/CMSIS/Include/core_cm7.h **** #define DWT_CTRL_CYCEVTENA_Msk             (0x1UL << DWT_CTRL_CYCEVTENA_Pos)           /*!< DWT CTR
1164:Drivers/CMSIS/Include/core_cm7.h **** 
1165:Drivers/CMSIS/Include/core_cm7.h **** #define DWT_CTRL_FOLDEVTENA_Pos            21U                                         /*!< DWT CTR
1166:Drivers/CMSIS/Include/core_cm7.h **** #define DWT_CTRL_FOLDEVTENA_Msk            (0x1UL << DWT_CTRL_FOLDEVTENA_Pos)          /*!< DWT CTR
1167:Drivers/CMSIS/Include/core_cm7.h **** 
1168:Drivers/CMSIS/Include/core_cm7.h **** #define DWT_CTRL_LSUEVTENA_Pos             20U                                         /*!< DWT CTR
1169:Drivers/CMSIS/Include/core_cm7.h **** #define DWT_CTRL_LSUEVTENA_Msk             (0x1UL << DWT_CTRL_LSUEVTENA_Pos)           /*!< DWT CTR
1170:Drivers/CMSIS/Include/core_cm7.h **** 
1171:Drivers/CMSIS/Include/core_cm7.h **** #define DWT_CTRL_SLEEPEVTENA_Pos           19U                                         /*!< DWT CTR
1172:Drivers/CMSIS/Include/core_cm7.h **** #define DWT_CTRL_SLEEPEVTENA_Msk           (0x1UL << DWT_CTRL_SLEEPEVTENA_Pos)         /*!< DWT CTR
1173:Drivers/CMSIS/Include/core_cm7.h **** 
1174:Drivers/CMSIS/Include/core_cm7.h **** #define DWT_CTRL_EXCEVTENA_Pos             18U                                         /*!< DWT CTR
1175:Drivers/CMSIS/Include/core_cm7.h **** #define DWT_CTRL_EXCEVTENA_Msk             (0x1UL << DWT_CTRL_EXCEVTENA_Pos)           /*!< DWT CTR
1176:Drivers/CMSIS/Include/core_cm7.h **** 
1177:Drivers/CMSIS/Include/core_cm7.h **** #define DWT_CTRL_CPIEVTENA_Pos             17U                                         /*!< DWT CTR
1178:Drivers/CMSIS/Include/core_cm7.h **** #define DWT_CTRL_CPIEVTENA_Msk             (0x1UL << DWT_CTRL_CPIEVTENA_Pos)           /*!< DWT CTR
1179:Drivers/CMSIS/Include/core_cm7.h **** 
1180:Drivers/CMSIS/Include/core_cm7.h **** #define DWT_CTRL_EXCTRCENA_Pos             16U                                         /*!< DWT CTR
1181:Drivers/CMSIS/Include/core_cm7.h **** #define DWT_CTRL_EXCTRCENA_Msk             (0x1UL << DWT_CTRL_EXCTRCENA_Pos)           /*!< DWT CTR
1182:Drivers/CMSIS/Include/core_cm7.h **** 
1183:Drivers/CMSIS/Include/core_cm7.h **** #define DWT_CTRL_PCSAMPLENA_Pos            12U                                         /*!< DWT CTR
1184:Drivers/CMSIS/Include/core_cm7.h **** #define DWT_CTRL_PCSAMPLENA_Msk            (0x1UL << DWT_CTRL_PCSAMPLENA_Pos)          /*!< DWT CTR
1185:Drivers/CMSIS/Include/core_cm7.h **** 
1186:Drivers/CMSIS/Include/core_cm7.h **** #define DWT_CTRL_SYNCTAP_Pos               10U                                         /*!< DWT CTR
1187:Drivers/CMSIS/Include/core_cm7.h **** #define DWT_CTRL_SYNCTAP_Msk               (0x3UL << DWT_CTRL_SYNCTAP_Pos)             /*!< DWT CTR
1188:Drivers/CMSIS/Include/core_cm7.h **** 
1189:Drivers/CMSIS/Include/core_cm7.h **** #define DWT_CTRL_CYCTAP_Pos                 9U                                         /*!< DWT CTR
1190:Drivers/CMSIS/Include/core_cm7.h **** #define DWT_CTRL_CYCTAP_Msk                (0x1UL << DWT_CTRL_CYCTAP_Pos)              /*!< DWT CTR
1191:Drivers/CMSIS/Include/core_cm7.h **** 
ARM GAS  /var/folders/9y/n02fl3g16gnf7ppy14xghdy80000gn/T//ccscaFA7.s 			page 39


1192:Drivers/CMSIS/Include/core_cm7.h **** #define DWT_CTRL_POSTINIT_Pos               5U                                         /*!< DWT CTR
1193:Drivers/CMSIS/Include/core_cm7.h **** #define DWT_CTRL_POSTINIT_Msk              (0xFUL << DWT_CTRL_POSTINIT_Pos)            /*!< DWT CTR
1194:Drivers/CMSIS/Include/core_cm7.h **** 
1195:Drivers/CMSIS/Include/core_cm7.h **** #define DWT_CTRL_POSTPRESET_Pos             1U                                         /*!< DWT CTR
1196:Drivers/CMSIS/Include/core_cm7.h **** #define DWT_CTRL_POSTPRESET_Msk            (0xFUL << DWT_CTRL_POSTPRESET_Pos)          /*!< DWT CTR
1197:Drivers/CMSIS/Include/core_cm7.h **** 
1198:Drivers/CMSIS/Include/core_cm7.h **** #define DWT_CTRL_CYCCNTENA_Pos              0U                                         /*!< DWT CTR
1199:Drivers/CMSIS/Include/core_cm7.h **** #define DWT_CTRL_CYCCNTENA_Msk             (0x1UL /*<< DWT_CTRL_CYCCNTENA_Pos*/)       /*!< DWT CTR
1200:Drivers/CMSIS/Include/core_cm7.h **** 
1201:Drivers/CMSIS/Include/core_cm7.h **** /* DWT CPI Count Register Definitions */
1202:Drivers/CMSIS/Include/core_cm7.h **** #define DWT_CPICNT_CPICNT_Pos               0U                                         /*!< DWT CPI
1203:Drivers/CMSIS/Include/core_cm7.h **** #define DWT_CPICNT_CPICNT_Msk              (0xFFUL /*<< DWT_CPICNT_CPICNT_Pos*/)       /*!< DWT CPI
1204:Drivers/CMSIS/Include/core_cm7.h **** 
1205:Drivers/CMSIS/Include/core_cm7.h **** /* DWT Exception Overhead Count Register Definitions */
1206:Drivers/CMSIS/Include/core_cm7.h **** #define DWT_EXCCNT_EXCCNT_Pos               0U                                         /*!< DWT EXC
1207:Drivers/CMSIS/Include/core_cm7.h **** #define DWT_EXCCNT_EXCCNT_Msk              (0xFFUL /*<< DWT_EXCCNT_EXCCNT_Pos*/)       /*!< DWT EXC
1208:Drivers/CMSIS/Include/core_cm7.h **** 
1209:Drivers/CMSIS/Include/core_cm7.h **** /* DWT Sleep Count Register Definitions */
1210:Drivers/CMSIS/Include/core_cm7.h **** #define DWT_SLEEPCNT_SLEEPCNT_Pos           0U                                         /*!< DWT SLE
1211:Drivers/CMSIS/Include/core_cm7.h **** #define DWT_SLEEPCNT_SLEEPCNT_Msk          (0xFFUL /*<< DWT_SLEEPCNT_SLEEPCNT_Pos*/)   /*!< DWT SLE
1212:Drivers/CMSIS/Include/core_cm7.h **** 
1213:Drivers/CMSIS/Include/core_cm7.h **** /* DWT LSU Count Register Definitions */
1214:Drivers/CMSIS/Include/core_cm7.h **** #define DWT_LSUCNT_LSUCNT_Pos               0U                                         /*!< DWT LSU
1215:Drivers/CMSIS/Include/core_cm7.h **** #define DWT_LSUCNT_LSUCNT_Msk              (0xFFUL /*<< DWT_LSUCNT_LSUCNT_Pos*/)       /*!< DWT LSU
1216:Drivers/CMSIS/Include/core_cm7.h **** 
1217:Drivers/CMSIS/Include/core_cm7.h **** /* DWT Folded-instruction Count Register Definitions */
1218:Drivers/CMSIS/Include/core_cm7.h **** #define DWT_FOLDCNT_FOLDCNT_Pos             0U                                         /*!< DWT FOL
1219:Drivers/CMSIS/Include/core_cm7.h **** #define DWT_FOLDCNT_FOLDCNT_Msk            (0xFFUL /*<< DWT_FOLDCNT_FOLDCNT_Pos*/)     /*!< DWT FOL
1220:Drivers/CMSIS/Include/core_cm7.h **** 
1221:Drivers/CMSIS/Include/core_cm7.h **** /* DWT Comparator Mask Register Definitions */
1222:Drivers/CMSIS/Include/core_cm7.h **** #define DWT_MASK_MASK_Pos                   0U                                         /*!< DWT MAS
1223:Drivers/CMSIS/Include/core_cm7.h **** #define DWT_MASK_MASK_Msk                  (0x1FUL /*<< DWT_MASK_MASK_Pos*/)           /*!< DWT MAS
1224:Drivers/CMSIS/Include/core_cm7.h **** 
1225:Drivers/CMSIS/Include/core_cm7.h **** /* DWT Comparator Function Register Definitions */
1226:Drivers/CMSIS/Include/core_cm7.h **** #define DWT_FUNCTION_MATCHED_Pos           24U                                         /*!< DWT FUN
1227:Drivers/CMSIS/Include/core_cm7.h **** #define DWT_FUNCTION_MATCHED_Msk           (0x1UL << DWT_FUNCTION_MATCHED_Pos)         /*!< DWT FUN
1228:Drivers/CMSIS/Include/core_cm7.h **** 
1229:Drivers/CMSIS/Include/core_cm7.h **** #define DWT_FUNCTION_DATAVADDR1_Pos        16U                                         /*!< DWT FUN
1230:Drivers/CMSIS/Include/core_cm7.h **** #define DWT_FUNCTION_DATAVADDR1_Msk        (0xFUL << DWT_FUNCTION_DATAVADDR1_Pos)      /*!< DWT FUN
1231:Drivers/CMSIS/Include/core_cm7.h **** 
1232:Drivers/CMSIS/Include/core_cm7.h **** #define DWT_FUNCTION_DATAVADDR0_Pos        12U                                         /*!< DWT FUN
1233:Drivers/CMSIS/Include/core_cm7.h **** #define DWT_FUNCTION_DATAVADDR0_Msk        (0xFUL << DWT_FUNCTION_DATAVADDR0_Pos)      /*!< DWT FUN
1234:Drivers/CMSIS/Include/core_cm7.h **** 
1235:Drivers/CMSIS/Include/core_cm7.h **** #define DWT_FUNCTION_DATAVSIZE_Pos         10U                                         /*!< DWT FUN
1236:Drivers/CMSIS/Include/core_cm7.h **** #define DWT_FUNCTION_DATAVSIZE_Msk         (0x3UL << DWT_FUNCTION_DATAVSIZE_Pos)       /*!< DWT FUN
1237:Drivers/CMSIS/Include/core_cm7.h **** 
1238:Drivers/CMSIS/Include/core_cm7.h **** #define DWT_FUNCTION_LNK1ENA_Pos            9U                                         /*!< DWT FUN
1239:Drivers/CMSIS/Include/core_cm7.h **** #define DWT_FUNCTION_LNK1ENA_Msk           (0x1UL << DWT_FUNCTION_LNK1ENA_Pos)         /*!< DWT FUN
1240:Drivers/CMSIS/Include/core_cm7.h **** 
1241:Drivers/CMSIS/Include/core_cm7.h **** #define DWT_FUNCTION_DATAVMATCH_Pos         8U                                         /*!< DWT FUN
1242:Drivers/CMSIS/Include/core_cm7.h **** #define DWT_FUNCTION_DATAVMATCH_Msk        (0x1UL << DWT_FUNCTION_DATAVMATCH_Pos)      /*!< DWT FUN
1243:Drivers/CMSIS/Include/core_cm7.h **** 
1244:Drivers/CMSIS/Include/core_cm7.h **** #define DWT_FUNCTION_CYCMATCH_Pos           7U                                         /*!< DWT FUN
1245:Drivers/CMSIS/Include/core_cm7.h **** #define DWT_FUNCTION_CYCMATCH_Msk          (0x1UL << DWT_FUNCTION_CYCMATCH_Pos)        /*!< DWT FUN
1246:Drivers/CMSIS/Include/core_cm7.h **** 
1247:Drivers/CMSIS/Include/core_cm7.h **** #define DWT_FUNCTION_EMITRANGE_Pos          5U                                         /*!< DWT FUN
1248:Drivers/CMSIS/Include/core_cm7.h **** #define DWT_FUNCTION_EMITRANGE_Msk         (0x1UL << DWT_FUNCTION_EMITRANGE_Pos)       /*!< DWT FUN
ARM GAS  /var/folders/9y/n02fl3g16gnf7ppy14xghdy80000gn/T//ccscaFA7.s 			page 40


1249:Drivers/CMSIS/Include/core_cm7.h **** 
1250:Drivers/CMSIS/Include/core_cm7.h **** #define DWT_FUNCTION_FUNCTION_Pos           0U                                         /*!< DWT FUN
1251:Drivers/CMSIS/Include/core_cm7.h **** #define DWT_FUNCTION_FUNCTION_Msk          (0xFUL /*<< DWT_FUNCTION_FUNCTION_Pos*/)    /*!< DWT FUN
1252:Drivers/CMSIS/Include/core_cm7.h **** 
1253:Drivers/CMSIS/Include/core_cm7.h **** /*@}*/ /* end of group CMSIS_DWT */
1254:Drivers/CMSIS/Include/core_cm7.h **** 
1255:Drivers/CMSIS/Include/core_cm7.h **** 
1256:Drivers/CMSIS/Include/core_cm7.h **** /**
1257:Drivers/CMSIS/Include/core_cm7.h ****   \ingroup  CMSIS_core_register
1258:Drivers/CMSIS/Include/core_cm7.h ****   \defgroup CMSIS_TPI     Trace Port Interface (TPI)
1259:Drivers/CMSIS/Include/core_cm7.h ****   \brief    Type definitions for the Trace Port Interface (TPI)
1260:Drivers/CMSIS/Include/core_cm7.h ****   @{
1261:Drivers/CMSIS/Include/core_cm7.h ****  */
1262:Drivers/CMSIS/Include/core_cm7.h **** 
1263:Drivers/CMSIS/Include/core_cm7.h **** /**
1264:Drivers/CMSIS/Include/core_cm7.h ****   \brief  Structure type to access the Trace Port Interface Register (TPI).
1265:Drivers/CMSIS/Include/core_cm7.h ****  */
1266:Drivers/CMSIS/Include/core_cm7.h **** typedef struct
1267:Drivers/CMSIS/Include/core_cm7.h **** {
1268:Drivers/CMSIS/Include/core_cm7.h ****   __IM  uint32_t SSPSR;                  /*!< Offset: 0x000 (R/ )  Supported Parallel Port Size Reg
1269:Drivers/CMSIS/Include/core_cm7.h ****   __IOM uint32_t CSPSR;                  /*!< Offset: 0x004 (R/W)  Current Parallel Port Size Regis
1270:Drivers/CMSIS/Include/core_cm7.h ****         uint32_t RESERVED0[2U];
1271:Drivers/CMSIS/Include/core_cm7.h ****   __IOM uint32_t ACPR;                   /*!< Offset: 0x010 (R/W)  Asynchronous Clock Prescaler Reg
1272:Drivers/CMSIS/Include/core_cm7.h ****         uint32_t RESERVED1[55U];
1273:Drivers/CMSIS/Include/core_cm7.h ****   __IOM uint32_t SPPR;                   /*!< Offset: 0x0F0 (R/W)  Selected Pin Protocol Register *
1274:Drivers/CMSIS/Include/core_cm7.h ****         uint32_t RESERVED2[131U];
1275:Drivers/CMSIS/Include/core_cm7.h ****   __IM  uint32_t FFSR;                   /*!< Offset: 0x300 (R/ )  Formatter and Flush Status Regis
1276:Drivers/CMSIS/Include/core_cm7.h ****   __IOM uint32_t FFCR;                   /*!< Offset: 0x304 (R/W)  Formatter and Flush Control Regi
1277:Drivers/CMSIS/Include/core_cm7.h ****   __IM  uint32_t FSCR;                   /*!< Offset: 0x308 (R/ )  Formatter Synchronization Counte
1278:Drivers/CMSIS/Include/core_cm7.h ****         uint32_t RESERVED3[759U];
1279:Drivers/CMSIS/Include/core_cm7.h ****   __IM  uint32_t TRIGGER;                /*!< Offset: 0xEE8 (R/ )  TRIGGER Register */
1280:Drivers/CMSIS/Include/core_cm7.h ****   __IM  uint32_t FIFO0;                  /*!< Offset: 0xEEC (R/ )  Integration ETM Data */
1281:Drivers/CMSIS/Include/core_cm7.h ****   __IM  uint32_t ITATBCTR2;              /*!< Offset: 0xEF0 (R/ )  ITATBCTR2 */
1282:Drivers/CMSIS/Include/core_cm7.h ****         uint32_t RESERVED4[1U];
1283:Drivers/CMSIS/Include/core_cm7.h ****   __IM  uint32_t ITATBCTR0;              /*!< Offset: 0xEF8 (R/ )  ITATBCTR0 */
1284:Drivers/CMSIS/Include/core_cm7.h ****   __IM  uint32_t FIFO1;                  /*!< Offset: 0xEFC (R/ )  Integration ITM Data */
1285:Drivers/CMSIS/Include/core_cm7.h ****   __IOM uint32_t ITCTRL;                 /*!< Offset: 0xF00 (R/W)  Integration Mode Control */
1286:Drivers/CMSIS/Include/core_cm7.h ****         uint32_t RESERVED5[39U];
1287:Drivers/CMSIS/Include/core_cm7.h ****   __IOM uint32_t CLAIMSET;               /*!< Offset: 0xFA0 (R/W)  Claim tag set */
1288:Drivers/CMSIS/Include/core_cm7.h ****   __IOM uint32_t CLAIMCLR;               /*!< Offset: 0xFA4 (R/W)  Claim tag clear */
1289:Drivers/CMSIS/Include/core_cm7.h ****         uint32_t RESERVED7[8U];
1290:Drivers/CMSIS/Include/core_cm7.h ****   __IM  uint32_t DEVID;                  /*!< Offset: 0xFC8 (R/ )  TPIU_DEVID */
1291:Drivers/CMSIS/Include/core_cm7.h ****   __IM  uint32_t DEVTYPE;                /*!< Offset: 0xFCC (R/ )  TPIU_DEVTYPE */
1292:Drivers/CMSIS/Include/core_cm7.h **** } TPI_Type;
1293:Drivers/CMSIS/Include/core_cm7.h **** 
1294:Drivers/CMSIS/Include/core_cm7.h **** /* TPI Asynchronous Clock Prescaler Register Definitions */
1295:Drivers/CMSIS/Include/core_cm7.h **** #define TPI_ACPR_PRESCALER_Pos              0U                                         /*!< TPI ACP
1296:Drivers/CMSIS/Include/core_cm7.h **** #define TPI_ACPR_PRESCALER_Msk             (0x1FFFUL /*<< TPI_ACPR_PRESCALER_Pos*/)    /*!< TPI ACP
1297:Drivers/CMSIS/Include/core_cm7.h **** 
1298:Drivers/CMSIS/Include/core_cm7.h **** /* TPI Selected Pin Protocol Register Definitions */
1299:Drivers/CMSIS/Include/core_cm7.h **** #define TPI_SPPR_TXMODE_Pos                 0U                                         /*!< TPI SPP
1300:Drivers/CMSIS/Include/core_cm7.h **** #define TPI_SPPR_TXMODE_Msk                (0x3UL /*<< TPI_SPPR_TXMODE_Pos*/)          /*!< TPI SPP
1301:Drivers/CMSIS/Include/core_cm7.h **** 
1302:Drivers/CMSIS/Include/core_cm7.h **** /* TPI Formatter and Flush Status Register Definitions */
1303:Drivers/CMSIS/Include/core_cm7.h **** #define TPI_FFSR_FtNonStop_Pos              3U                                         /*!< TPI FFS
1304:Drivers/CMSIS/Include/core_cm7.h **** #define TPI_FFSR_FtNonStop_Msk             (0x1UL << TPI_FFSR_FtNonStop_Pos)           /*!< TPI FFS
1305:Drivers/CMSIS/Include/core_cm7.h **** 
ARM GAS  /var/folders/9y/n02fl3g16gnf7ppy14xghdy80000gn/T//ccscaFA7.s 			page 41


1306:Drivers/CMSIS/Include/core_cm7.h **** #define TPI_FFSR_TCPresent_Pos              2U                                         /*!< TPI FFS
1307:Drivers/CMSIS/Include/core_cm7.h **** #define TPI_FFSR_TCPresent_Msk             (0x1UL << TPI_FFSR_TCPresent_Pos)           /*!< TPI FFS
1308:Drivers/CMSIS/Include/core_cm7.h **** 
1309:Drivers/CMSIS/Include/core_cm7.h **** #define TPI_FFSR_FtStopped_Pos              1U                                         /*!< TPI FFS
1310:Drivers/CMSIS/Include/core_cm7.h **** #define TPI_FFSR_FtStopped_Msk             (0x1UL << TPI_FFSR_FtStopped_Pos)           /*!< TPI FFS
1311:Drivers/CMSIS/Include/core_cm7.h **** 
1312:Drivers/CMSIS/Include/core_cm7.h **** #define TPI_FFSR_FlInProg_Pos               0U                                         /*!< TPI FFS
1313:Drivers/CMSIS/Include/core_cm7.h **** #define TPI_FFSR_FlInProg_Msk              (0x1UL /*<< TPI_FFSR_FlInProg_Pos*/)        /*!< TPI FFS
1314:Drivers/CMSIS/Include/core_cm7.h **** 
1315:Drivers/CMSIS/Include/core_cm7.h **** /* TPI Formatter and Flush Control Register Definitions */
1316:Drivers/CMSIS/Include/core_cm7.h **** #define TPI_FFCR_TrigIn_Pos                 8U                                         /*!< TPI FFC
1317:Drivers/CMSIS/Include/core_cm7.h **** #define TPI_FFCR_TrigIn_Msk                (0x1UL << TPI_FFCR_TrigIn_Pos)              /*!< TPI FFC
1318:Drivers/CMSIS/Include/core_cm7.h **** 
1319:Drivers/CMSIS/Include/core_cm7.h **** #define TPI_FFCR_EnFCont_Pos                1U                                         /*!< TPI FFC
1320:Drivers/CMSIS/Include/core_cm7.h **** #define TPI_FFCR_EnFCont_Msk               (0x1UL << TPI_FFCR_EnFCont_Pos)             /*!< TPI FFC
1321:Drivers/CMSIS/Include/core_cm7.h **** 
1322:Drivers/CMSIS/Include/core_cm7.h **** /* TPI TRIGGER Register Definitions */
1323:Drivers/CMSIS/Include/core_cm7.h **** #define TPI_TRIGGER_TRIGGER_Pos             0U                                         /*!< TPI TRI
1324:Drivers/CMSIS/Include/core_cm7.h **** #define TPI_TRIGGER_TRIGGER_Msk            (0x1UL /*<< TPI_TRIGGER_TRIGGER_Pos*/)      /*!< TPI TRI
1325:Drivers/CMSIS/Include/core_cm7.h **** 
1326:Drivers/CMSIS/Include/core_cm7.h **** /* TPI Integration ETM Data Register Definitions (FIFO0) */
1327:Drivers/CMSIS/Include/core_cm7.h **** #define TPI_FIFO0_ITM_ATVALID_Pos          29U                                         /*!< TPI FIF
1328:Drivers/CMSIS/Include/core_cm7.h **** #define TPI_FIFO0_ITM_ATVALID_Msk          (0x3UL << TPI_FIFO0_ITM_ATVALID_Pos)        /*!< TPI FIF
1329:Drivers/CMSIS/Include/core_cm7.h **** 
1330:Drivers/CMSIS/Include/core_cm7.h **** #define TPI_FIFO0_ITM_bytecount_Pos        27U                                         /*!< TPI FIF
1331:Drivers/CMSIS/Include/core_cm7.h **** #define TPI_FIFO0_ITM_bytecount_Msk        (0x3UL << TPI_FIFO0_ITM_bytecount_Pos)      /*!< TPI FIF
1332:Drivers/CMSIS/Include/core_cm7.h **** 
1333:Drivers/CMSIS/Include/core_cm7.h **** #define TPI_FIFO0_ETM_ATVALID_Pos          26U                                         /*!< TPI FIF
1334:Drivers/CMSIS/Include/core_cm7.h **** #define TPI_FIFO0_ETM_ATVALID_Msk          (0x3UL << TPI_FIFO0_ETM_ATVALID_Pos)        /*!< TPI FIF
1335:Drivers/CMSIS/Include/core_cm7.h **** 
1336:Drivers/CMSIS/Include/core_cm7.h **** #define TPI_FIFO0_ETM_bytecount_Pos        24U                                         /*!< TPI FIF
1337:Drivers/CMSIS/Include/core_cm7.h **** #define TPI_FIFO0_ETM_bytecount_Msk        (0x3UL << TPI_FIFO0_ETM_bytecount_Pos)      /*!< TPI FIF
1338:Drivers/CMSIS/Include/core_cm7.h **** 
1339:Drivers/CMSIS/Include/core_cm7.h **** #define TPI_FIFO0_ETM2_Pos                 16U                                         /*!< TPI FIF
1340:Drivers/CMSIS/Include/core_cm7.h **** #define TPI_FIFO0_ETM2_Msk                 (0xFFUL << TPI_FIFO0_ETM2_Pos)              /*!< TPI FIF
1341:Drivers/CMSIS/Include/core_cm7.h **** 
1342:Drivers/CMSIS/Include/core_cm7.h **** #define TPI_FIFO0_ETM1_Pos                  8U                                         /*!< TPI FIF
1343:Drivers/CMSIS/Include/core_cm7.h **** #define TPI_FIFO0_ETM1_Msk                 (0xFFUL << TPI_FIFO0_ETM1_Pos)              /*!< TPI FIF
1344:Drivers/CMSIS/Include/core_cm7.h **** 
1345:Drivers/CMSIS/Include/core_cm7.h **** #define TPI_FIFO0_ETM0_Pos                  0U                                         /*!< TPI FIF
1346:Drivers/CMSIS/Include/core_cm7.h **** #define TPI_FIFO0_ETM0_Msk                 (0xFFUL /*<< TPI_FIFO0_ETM0_Pos*/)          /*!< TPI FIF
1347:Drivers/CMSIS/Include/core_cm7.h **** 
1348:Drivers/CMSIS/Include/core_cm7.h **** /* TPI ITATBCTR2 Register Definitions */
1349:Drivers/CMSIS/Include/core_cm7.h **** #define TPI_ITATBCTR2_ATREADY2_Pos          0U                                         /*!< TPI ITA
1350:Drivers/CMSIS/Include/core_cm7.h **** #define TPI_ITATBCTR2_ATREADY2_Msk         (0x1UL /*<< TPI_ITATBCTR2_ATREADY2_Pos*/)   /*!< TPI ITA
1351:Drivers/CMSIS/Include/core_cm7.h **** 
1352:Drivers/CMSIS/Include/core_cm7.h **** #define TPI_ITATBCTR2_ATREADY1_Pos          0U                                         /*!< TPI ITA
1353:Drivers/CMSIS/Include/core_cm7.h **** #define TPI_ITATBCTR2_ATREADY1_Msk         (0x1UL /*<< TPI_ITATBCTR2_ATREADY1_Pos*/)   /*!< TPI ITA
1354:Drivers/CMSIS/Include/core_cm7.h **** 
1355:Drivers/CMSIS/Include/core_cm7.h **** /* TPI Integration ITM Data Register Definitions (FIFO1) */
1356:Drivers/CMSIS/Include/core_cm7.h **** #define TPI_FIFO1_ITM_ATVALID_Pos          29U                                         /*!< TPI FIF
1357:Drivers/CMSIS/Include/core_cm7.h **** #define TPI_FIFO1_ITM_ATVALID_Msk          (0x3UL << TPI_FIFO1_ITM_ATVALID_Pos)        /*!< TPI FIF
1358:Drivers/CMSIS/Include/core_cm7.h **** 
1359:Drivers/CMSIS/Include/core_cm7.h **** #define TPI_FIFO1_ITM_bytecount_Pos        27U                                         /*!< TPI FIF
1360:Drivers/CMSIS/Include/core_cm7.h **** #define TPI_FIFO1_ITM_bytecount_Msk        (0x3UL << TPI_FIFO1_ITM_bytecount_Pos)      /*!< TPI FIF
1361:Drivers/CMSIS/Include/core_cm7.h **** 
1362:Drivers/CMSIS/Include/core_cm7.h **** #define TPI_FIFO1_ETM_ATVALID_Pos          26U                                         /*!< TPI FIF
ARM GAS  /var/folders/9y/n02fl3g16gnf7ppy14xghdy80000gn/T//ccscaFA7.s 			page 42


1363:Drivers/CMSIS/Include/core_cm7.h **** #define TPI_FIFO1_ETM_ATVALID_Msk          (0x3UL << TPI_FIFO1_ETM_ATVALID_Pos)        /*!< TPI FIF
1364:Drivers/CMSIS/Include/core_cm7.h **** 
1365:Drivers/CMSIS/Include/core_cm7.h **** #define TPI_FIFO1_ETM_bytecount_Pos        24U                                         /*!< TPI FIF
1366:Drivers/CMSIS/Include/core_cm7.h **** #define TPI_FIFO1_ETM_bytecount_Msk        (0x3UL << TPI_FIFO1_ETM_bytecount_Pos)      /*!< TPI FIF
1367:Drivers/CMSIS/Include/core_cm7.h **** 
1368:Drivers/CMSIS/Include/core_cm7.h **** #define TPI_FIFO1_ITM2_Pos                 16U                                         /*!< TPI FIF
1369:Drivers/CMSIS/Include/core_cm7.h **** #define TPI_FIFO1_ITM2_Msk                 (0xFFUL << TPI_FIFO1_ITM2_Pos)              /*!< TPI FIF
1370:Drivers/CMSIS/Include/core_cm7.h **** 
1371:Drivers/CMSIS/Include/core_cm7.h **** #define TPI_FIFO1_ITM1_Pos                  8U                                         /*!< TPI FIF
1372:Drivers/CMSIS/Include/core_cm7.h **** #define TPI_FIFO1_ITM1_Msk                 (0xFFUL << TPI_FIFO1_ITM1_Pos)              /*!< TPI FIF
1373:Drivers/CMSIS/Include/core_cm7.h **** 
1374:Drivers/CMSIS/Include/core_cm7.h **** #define TPI_FIFO1_ITM0_Pos                  0U                                         /*!< TPI FIF
1375:Drivers/CMSIS/Include/core_cm7.h **** #define TPI_FIFO1_ITM0_Msk                 (0xFFUL /*<< TPI_FIFO1_ITM0_Pos*/)          /*!< TPI FIF
1376:Drivers/CMSIS/Include/core_cm7.h **** 
1377:Drivers/CMSIS/Include/core_cm7.h **** /* TPI ITATBCTR0 Register Definitions */
1378:Drivers/CMSIS/Include/core_cm7.h **** #define TPI_ITATBCTR0_ATREADY2_Pos          0U                                         /*!< TPI ITA
1379:Drivers/CMSIS/Include/core_cm7.h **** #define TPI_ITATBCTR0_ATREADY2_Msk         (0x1UL /*<< TPI_ITATBCTR0_ATREADY2_Pos*/)   /*!< TPI ITA
1380:Drivers/CMSIS/Include/core_cm7.h **** 
1381:Drivers/CMSIS/Include/core_cm7.h **** #define TPI_ITATBCTR0_ATREADY1_Pos          0U                                         /*!< TPI ITA
1382:Drivers/CMSIS/Include/core_cm7.h **** #define TPI_ITATBCTR0_ATREADY1_Msk         (0x1UL /*<< TPI_ITATBCTR0_ATREADY1_Pos*/)   /*!< TPI ITA
1383:Drivers/CMSIS/Include/core_cm7.h **** 
1384:Drivers/CMSIS/Include/core_cm7.h **** /* TPI Integration Mode Control Register Definitions */
1385:Drivers/CMSIS/Include/core_cm7.h **** #define TPI_ITCTRL_Mode_Pos                 0U                                         /*!< TPI ITC
1386:Drivers/CMSIS/Include/core_cm7.h **** #define TPI_ITCTRL_Mode_Msk                (0x3UL /*<< TPI_ITCTRL_Mode_Pos*/)          /*!< TPI ITC
1387:Drivers/CMSIS/Include/core_cm7.h **** 
1388:Drivers/CMSIS/Include/core_cm7.h **** /* TPI DEVID Register Definitions */
1389:Drivers/CMSIS/Include/core_cm7.h **** #define TPI_DEVID_NRZVALID_Pos             11U                                         /*!< TPI DEV
1390:Drivers/CMSIS/Include/core_cm7.h **** #define TPI_DEVID_NRZVALID_Msk             (0x1UL << TPI_DEVID_NRZVALID_Pos)           /*!< TPI DEV
1391:Drivers/CMSIS/Include/core_cm7.h **** 
1392:Drivers/CMSIS/Include/core_cm7.h **** #define TPI_DEVID_MANCVALID_Pos            10U                                         /*!< TPI DEV
1393:Drivers/CMSIS/Include/core_cm7.h **** #define TPI_DEVID_MANCVALID_Msk            (0x1UL << TPI_DEVID_MANCVALID_Pos)          /*!< TPI DEV
1394:Drivers/CMSIS/Include/core_cm7.h **** 
1395:Drivers/CMSIS/Include/core_cm7.h **** #define TPI_DEVID_PTINVALID_Pos             9U                                         /*!< TPI DEV
1396:Drivers/CMSIS/Include/core_cm7.h **** #define TPI_DEVID_PTINVALID_Msk            (0x1UL << TPI_DEVID_PTINVALID_Pos)          /*!< TPI DEV
1397:Drivers/CMSIS/Include/core_cm7.h **** 
1398:Drivers/CMSIS/Include/core_cm7.h **** #define TPI_DEVID_MinBufSz_Pos              6U                                         /*!< TPI DEV
1399:Drivers/CMSIS/Include/core_cm7.h **** #define TPI_DEVID_MinBufSz_Msk             (0x7UL << TPI_DEVID_MinBufSz_Pos)           /*!< TPI DEV
1400:Drivers/CMSIS/Include/core_cm7.h **** 
1401:Drivers/CMSIS/Include/core_cm7.h **** #define TPI_DEVID_AsynClkIn_Pos             5U                                         /*!< TPI DEV
1402:Drivers/CMSIS/Include/core_cm7.h **** #define TPI_DEVID_AsynClkIn_Msk            (0x1UL << TPI_DEVID_AsynClkIn_Pos)          /*!< TPI DEV
1403:Drivers/CMSIS/Include/core_cm7.h **** 
1404:Drivers/CMSIS/Include/core_cm7.h **** #define TPI_DEVID_NrTraceInput_Pos          0U                                         /*!< TPI DEV
1405:Drivers/CMSIS/Include/core_cm7.h **** #define TPI_DEVID_NrTraceInput_Msk         (0x1FUL /*<< TPI_DEVID_NrTraceInput_Pos*/)  /*!< TPI DEV
1406:Drivers/CMSIS/Include/core_cm7.h **** 
1407:Drivers/CMSIS/Include/core_cm7.h **** /* TPI DEVTYPE Register Definitions */
1408:Drivers/CMSIS/Include/core_cm7.h **** #define TPI_DEVTYPE_SubType_Pos             4U                                         /*!< TPI DEV
1409:Drivers/CMSIS/Include/core_cm7.h **** #define TPI_DEVTYPE_SubType_Msk            (0xFUL /*<< TPI_DEVTYPE_SubType_Pos*/)      /*!< TPI DEV
1410:Drivers/CMSIS/Include/core_cm7.h **** 
1411:Drivers/CMSIS/Include/core_cm7.h **** #define TPI_DEVTYPE_MajorType_Pos           0U                                         /*!< TPI DEV
1412:Drivers/CMSIS/Include/core_cm7.h **** #define TPI_DEVTYPE_MajorType_Msk          (0xFUL << TPI_DEVTYPE_MajorType_Pos)        /*!< TPI DEV
1413:Drivers/CMSIS/Include/core_cm7.h **** 
1414:Drivers/CMSIS/Include/core_cm7.h **** /*@}*/ /* end of group CMSIS_TPI */
1415:Drivers/CMSIS/Include/core_cm7.h **** 
1416:Drivers/CMSIS/Include/core_cm7.h **** 
1417:Drivers/CMSIS/Include/core_cm7.h **** #if defined (__MPU_PRESENT) && (__MPU_PRESENT == 1U)
1418:Drivers/CMSIS/Include/core_cm7.h **** /**
1419:Drivers/CMSIS/Include/core_cm7.h ****   \ingroup  CMSIS_core_register
ARM GAS  /var/folders/9y/n02fl3g16gnf7ppy14xghdy80000gn/T//ccscaFA7.s 			page 43


1420:Drivers/CMSIS/Include/core_cm7.h ****   \defgroup CMSIS_MPU     Memory Protection Unit (MPU)
1421:Drivers/CMSIS/Include/core_cm7.h ****   \brief    Type definitions for the Memory Protection Unit (MPU)
1422:Drivers/CMSIS/Include/core_cm7.h ****   @{
1423:Drivers/CMSIS/Include/core_cm7.h ****  */
1424:Drivers/CMSIS/Include/core_cm7.h **** 
1425:Drivers/CMSIS/Include/core_cm7.h **** /**
1426:Drivers/CMSIS/Include/core_cm7.h ****   \brief  Structure type to access the Memory Protection Unit (MPU).
1427:Drivers/CMSIS/Include/core_cm7.h ****  */
1428:Drivers/CMSIS/Include/core_cm7.h **** typedef struct
1429:Drivers/CMSIS/Include/core_cm7.h **** {
1430:Drivers/CMSIS/Include/core_cm7.h ****   __IM  uint32_t TYPE;                   /*!< Offset: 0x000 (R/ )  MPU Type Register */
1431:Drivers/CMSIS/Include/core_cm7.h ****   __IOM uint32_t CTRL;                   /*!< Offset: 0x004 (R/W)  MPU Control Register */
1432:Drivers/CMSIS/Include/core_cm7.h ****   __IOM uint32_t RNR;                    /*!< Offset: 0x008 (R/W)  MPU Region RNRber Register */
1433:Drivers/CMSIS/Include/core_cm7.h ****   __IOM uint32_t RBAR;                   /*!< Offset: 0x00C (R/W)  MPU Region Base Address Register
1434:Drivers/CMSIS/Include/core_cm7.h ****   __IOM uint32_t RASR;                   /*!< Offset: 0x010 (R/W)  MPU Region Attribute and Size Re
1435:Drivers/CMSIS/Include/core_cm7.h ****   __IOM uint32_t RBAR_A1;                /*!< Offset: 0x014 (R/W)  MPU Alias 1 Region Base Address 
1436:Drivers/CMSIS/Include/core_cm7.h ****   __IOM uint32_t RASR_A1;                /*!< Offset: 0x018 (R/W)  MPU Alias 1 Region Attribute and
1437:Drivers/CMSIS/Include/core_cm7.h ****   __IOM uint32_t RBAR_A2;                /*!< Offset: 0x01C (R/W)  MPU Alias 2 Region Base Address 
1438:Drivers/CMSIS/Include/core_cm7.h ****   __IOM uint32_t RASR_A2;                /*!< Offset: 0x020 (R/W)  MPU Alias 2 Region Attribute and
1439:Drivers/CMSIS/Include/core_cm7.h ****   __IOM uint32_t RBAR_A3;                /*!< Offset: 0x024 (R/W)  MPU Alias 3 Region Base Address 
1440:Drivers/CMSIS/Include/core_cm7.h ****   __IOM uint32_t RASR_A3;                /*!< Offset: 0x028 (R/W)  MPU Alias 3 Region Attribute and
1441:Drivers/CMSIS/Include/core_cm7.h **** } MPU_Type;
1442:Drivers/CMSIS/Include/core_cm7.h **** 
1443:Drivers/CMSIS/Include/core_cm7.h **** #define MPU_TYPE_RALIASES                  4U
1444:Drivers/CMSIS/Include/core_cm7.h **** 
1445:Drivers/CMSIS/Include/core_cm7.h **** /* MPU Type Register Definitions */
1446:Drivers/CMSIS/Include/core_cm7.h **** #define MPU_TYPE_IREGION_Pos               16U                                            /*!< MPU 
1447:Drivers/CMSIS/Include/core_cm7.h **** #define MPU_TYPE_IREGION_Msk               (0xFFUL << MPU_TYPE_IREGION_Pos)               /*!< MPU 
1448:Drivers/CMSIS/Include/core_cm7.h **** 
1449:Drivers/CMSIS/Include/core_cm7.h **** #define MPU_TYPE_DREGION_Pos                8U                                            /*!< MPU 
1450:Drivers/CMSIS/Include/core_cm7.h **** #define MPU_TYPE_DREGION_Msk               (0xFFUL << MPU_TYPE_DREGION_Pos)               /*!< MPU 
1451:Drivers/CMSIS/Include/core_cm7.h **** 
1452:Drivers/CMSIS/Include/core_cm7.h **** #define MPU_TYPE_SEPARATE_Pos               0U                                            /*!< MPU 
1453:Drivers/CMSIS/Include/core_cm7.h **** #define MPU_TYPE_SEPARATE_Msk              (1UL /*<< MPU_TYPE_SEPARATE_Pos*/)             /*!< MPU 
1454:Drivers/CMSIS/Include/core_cm7.h **** 
1455:Drivers/CMSIS/Include/core_cm7.h **** /* MPU Control Register Definitions */
1456:Drivers/CMSIS/Include/core_cm7.h **** #define MPU_CTRL_PRIVDEFENA_Pos             2U                                            /*!< MPU 
1457:Drivers/CMSIS/Include/core_cm7.h **** #define MPU_CTRL_PRIVDEFENA_Msk            (1UL << MPU_CTRL_PRIVDEFENA_Pos)               /*!< MPU 
1458:Drivers/CMSIS/Include/core_cm7.h **** 
1459:Drivers/CMSIS/Include/core_cm7.h **** #define MPU_CTRL_HFNMIENA_Pos               1U                                            /*!< MPU 
1460:Drivers/CMSIS/Include/core_cm7.h **** #define MPU_CTRL_HFNMIENA_Msk              (1UL << MPU_CTRL_HFNMIENA_Pos)                 /*!< MPU 
1461:Drivers/CMSIS/Include/core_cm7.h **** 
1462:Drivers/CMSIS/Include/core_cm7.h **** #define MPU_CTRL_ENABLE_Pos                 0U                                            /*!< MPU 
1463:Drivers/CMSIS/Include/core_cm7.h **** #define MPU_CTRL_ENABLE_Msk                (1UL /*<< MPU_CTRL_ENABLE_Pos*/)               /*!< MPU 
1464:Drivers/CMSIS/Include/core_cm7.h **** 
1465:Drivers/CMSIS/Include/core_cm7.h **** /* MPU Region Number Register Definitions */
1466:Drivers/CMSIS/Include/core_cm7.h **** #define MPU_RNR_REGION_Pos                  0U                                            /*!< MPU 
1467:Drivers/CMSIS/Include/core_cm7.h **** #define MPU_RNR_REGION_Msk                 (0xFFUL /*<< MPU_RNR_REGION_Pos*/)             /*!< MPU 
1468:Drivers/CMSIS/Include/core_cm7.h **** 
1469:Drivers/CMSIS/Include/core_cm7.h **** /* MPU Region Base Address Register Definitions */
1470:Drivers/CMSIS/Include/core_cm7.h **** #define MPU_RBAR_ADDR_Pos                   5U                                            /*!< MPU 
1471:Drivers/CMSIS/Include/core_cm7.h **** #define MPU_RBAR_ADDR_Msk                  (0x7FFFFFFUL << MPU_RBAR_ADDR_Pos)             /*!< MPU 
1472:Drivers/CMSIS/Include/core_cm7.h **** 
1473:Drivers/CMSIS/Include/core_cm7.h **** #define MPU_RBAR_VALID_Pos                  4U                                            /*!< MPU 
1474:Drivers/CMSIS/Include/core_cm7.h **** #define MPU_RBAR_VALID_Msk                 (1UL << MPU_RBAR_VALID_Pos)                    /*!< MPU 
1475:Drivers/CMSIS/Include/core_cm7.h **** 
1476:Drivers/CMSIS/Include/core_cm7.h **** #define MPU_RBAR_REGION_Pos                 0U                                            /*!< MPU 
ARM GAS  /var/folders/9y/n02fl3g16gnf7ppy14xghdy80000gn/T//ccscaFA7.s 			page 44


1477:Drivers/CMSIS/Include/core_cm7.h **** #define MPU_RBAR_REGION_Msk                (0xFUL /*<< MPU_RBAR_REGION_Pos*/)             /*!< MPU 
1478:Drivers/CMSIS/Include/core_cm7.h **** 
1479:Drivers/CMSIS/Include/core_cm7.h **** /* MPU Region Attribute and Size Register Definitions */
1480:Drivers/CMSIS/Include/core_cm7.h **** #define MPU_RASR_ATTRS_Pos                 16U                                            /*!< MPU 
1481:Drivers/CMSIS/Include/core_cm7.h **** #define MPU_RASR_ATTRS_Msk                 (0xFFFFUL << MPU_RASR_ATTRS_Pos)               /*!< MPU 
1482:Drivers/CMSIS/Include/core_cm7.h **** 
1483:Drivers/CMSIS/Include/core_cm7.h **** #define MPU_RASR_XN_Pos                    28U                                            /*!< MPU 
1484:Drivers/CMSIS/Include/core_cm7.h **** #define MPU_RASR_XN_Msk                    (1UL << MPU_RASR_XN_Pos)                       /*!< MPU 
1485:Drivers/CMSIS/Include/core_cm7.h **** 
1486:Drivers/CMSIS/Include/core_cm7.h **** #define MPU_RASR_AP_Pos                    24U                                            /*!< MPU 
1487:Drivers/CMSIS/Include/core_cm7.h **** #define MPU_RASR_AP_Msk                    (0x7UL << MPU_RASR_AP_Pos)                     /*!< MPU 
1488:Drivers/CMSIS/Include/core_cm7.h **** 
1489:Drivers/CMSIS/Include/core_cm7.h **** #define MPU_RASR_TEX_Pos                   19U                                            /*!< MPU 
1490:Drivers/CMSIS/Include/core_cm7.h **** #define MPU_RASR_TEX_Msk                   (0x7UL << MPU_RASR_TEX_Pos)                    /*!< MPU 
1491:Drivers/CMSIS/Include/core_cm7.h **** 
1492:Drivers/CMSIS/Include/core_cm7.h **** #define MPU_RASR_S_Pos                     18U                                            /*!< MPU 
1493:Drivers/CMSIS/Include/core_cm7.h **** #define MPU_RASR_S_Msk                     (1UL << MPU_RASR_S_Pos)                        /*!< MPU 
1494:Drivers/CMSIS/Include/core_cm7.h **** 
1495:Drivers/CMSIS/Include/core_cm7.h **** #define MPU_RASR_C_Pos                     17U                                            /*!< MPU 
1496:Drivers/CMSIS/Include/core_cm7.h **** #define MPU_RASR_C_Msk                     (1UL << MPU_RASR_C_Pos)                        /*!< MPU 
1497:Drivers/CMSIS/Include/core_cm7.h **** 
1498:Drivers/CMSIS/Include/core_cm7.h **** #define MPU_RASR_B_Pos                     16U                                            /*!< MPU 
1499:Drivers/CMSIS/Include/core_cm7.h **** #define MPU_RASR_B_Msk                     (1UL << MPU_RASR_B_Pos)                        /*!< MPU 
1500:Drivers/CMSIS/Include/core_cm7.h **** 
1501:Drivers/CMSIS/Include/core_cm7.h **** #define MPU_RASR_SRD_Pos                    8U                                            /*!< MPU 
1502:Drivers/CMSIS/Include/core_cm7.h **** #define MPU_RASR_SRD_Msk                   (0xFFUL << MPU_RASR_SRD_Pos)                   /*!< MPU 
1503:Drivers/CMSIS/Include/core_cm7.h **** 
1504:Drivers/CMSIS/Include/core_cm7.h **** #define MPU_RASR_SIZE_Pos                   1U                                            /*!< MPU 
1505:Drivers/CMSIS/Include/core_cm7.h **** #define MPU_RASR_SIZE_Msk                  (0x1FUL << MPU_RASR_SIZE_Pos)                  /*!< MPU 
1506:Drivers/CMSIS/Include/core_cm7.h **** 
1507:Drivers/CMSIS/Include/core_cm7.h **** #define MPU_RASR_ENABLE_Pos                 0U                                            /*!< MPU 
1508:Drivers/CMSIS/Include/core_cm7.h **** #define MPU_RASR_ENABLE_Msk                (1UL /*<< MPU_RASR_ENABLE_Pos*/)               /*!< MPU 
1509:Drivers/CMSIS/Include/core_cm7.h **** 
1510:Drivers/CMSIS/Include/core_cm7.h **** /*@} end of group CMSIS_MPU */
1511:Drivers/CMSIS/Include/core_cm7.h **** #endif /* defined (__MPU_PRESENT) && (__MPU_PRESENT == 1U) */
1512:Drivers/CMSIS/Include/core_cm7.h **** 
1513:Drivers/CMSIS/Include/core_cm7.h **** 
1514:Drivers/CMSIS/Include/core_cm7.h **** /**
1515:Drivers/CMSIS/Include/core_cm7.h ****   \ingroup  CMSIS_core_register
1516:Drivers/CMSIS/Include/core_cm7.h ****   \defgroup CMSIS_FPU     Floating Point Unit (FPU)
1517:Drivers/CMSIS/Include/core_cm7.h ****   \brief    Type definitions for the Floating Point Unit (FPU)
1518:Drivers/CMSIS/Include/core_cm7.h ****   @{
1519:Drivers/CMSIS/Include/core_cm7.h ****  */
1520:Drivers/CMSIS/Include/core_cm7.h **** 
1521:Drivers/CMSIS/Include/core_cm7.h **** /**
1522:Drivers/CMSIS/Include/core_cm7.h ****   \brief  Structure type to access the Floating Point Unit (FPU).
1523:Drivers/CMSIS/Include/core_cm7.h ****  */
1524:Drivers/CMSIS/Include/core_cm7.h **** typedef struct
1525:Drivers/CMSIS/Include/core_cm7.h **** {
1526:Drivers/CMSIS/Include/core_cm7.h ****         uint32_t RESERVED0[1U];
1527:Drivers/CMSIS/Include/core_cm7.h ****   __IOM uint32_t FPCCR;                  /*!< Offset: 0x004 (R/W)  Floating-Point Context Control R
1528:Drivers/CMSIS/Include/core_cm7.h ****   __IOM uint32_t FPCAR;                  /*!< Offset: 0x008 (R/W)  Floating-Point Context Address R
1529:Drivers/CMSIS/Include/core_cm7.h ****   __IOM uint32_t FPDSCR;                 /*!< Offset: 0x00C (R/W)  Floating-Point Default Status Co
1530:Drivers/CMSIS/Include/core_cm7.h ****   __IM  uint32_t MVFR0;                  /*!< Offset: 0x010 (R/ )  Media and FP Feature Register 0 
1531:Drivers/CMSIS/Include/core_cm7.h ****   __IM  uint32_t MVFR1;                  /*!< Offset: 0x014 (R/ )  Media and FP Feature Register 1 
1532:Drivers/CMSIS/Include/core_cm7.h ****   __IM  uint32_t MVFR2;                  /*!< Offset: 0x018 (R/ )  Media and FP Feature Register 2 
1533:Drivers/CMSIS/Include/core_cm7.h **** } FPU_Type;
ARM GAS  /var/folders/9y/n02fl3g16gnf7ppy14xghdy80000gn/T//ccscaFA7.s 			page 45


1534:Drivers/CMSIS/Include/core_cm7.h **** 
1535:Drivers/CMSIS/Include/core_cm7.h **** /* Floating-Point Context Control Register Definitions */
1536:Drivers/CMSIS/Include/core_cm7.h **** #define FPU_FPCCR_ASPEN_Pos                31U                                            /*!< FPCC
1537:Drivers/CMSIS/Include/core_cm7.h **** #define FPU_FPCCR_ASPEN_Msk                (1UL << FPU_FPCCR_ASPEN_Pos)                   /*!< FPCC
1538:Drivers/CMSIS/Include/core_cm7.h **** 
1539:Drivers/CMSIS/Include/core_cm7.h **** #define FPU_FPCCR_LSPEN_Pos                30U                                            /*!< FPCC
1540:Drivers/CMSIS/Include/core_cm7.h **** #define FPU_FPCCR_LSPEN_Msk                (1UL << FPU_FPCCR_LSPEN_Pos)                   /*!< FPCC
1541:Drivers/CMSIS/Include/core_cm7.h **** 
1542:Drivers/CMSIS/Include/core_cm7.h **** #define FPU_FPCCR_MONRDY_Pos                8U                                            /*!< FPCC
1543:Drivers/CMSIS/Include/core_cm7.h **** #define FPU_FPCCR_MONRDY_Msk               (1UL << FPU_FPCCR_MONRDY_Pos)                  /*!< FPCC
1544:Drivers/CMSIS/Include/core_cm7.h **** 
1545:Drivers/CMSIS/Include/core_cm7.h **** #define FPU_FPCCR_BFRDY_Pos                 6U                                            /*!< FPCC
1546:Drivers/CMSIS/Include/core_cm7.h **** #define FPU_FPCCR_BFRDY_Msk                (1UL << FPU_FPCCR_BFRDY_Pos)                   /*!< FPCC
1547:Drivers/CMSIS/Include/core_cm7.h **** 
1548:Drivers/CMSIS/Include/core_cm7.h **** #define FPU_FPCCR_MMRDY_Pos                 5U                                            /*!< FPCC
1549:Drivers/CMSIS/Include/core_cm7.h **** #define FPU_FPCCR_MMRDY_Msk                (1UL << FPU_FPCCR_MMRDY_Pos)                   /*!< FPCC
1550:Drivers/CMSIS/Include/core_cm7.h **** 
1551:Drivers/CMSIS/Include/core_cm7.h **** #define FPU_FPCCR_HFRDY_Pos                 4U                                            /*!< FPCC
1552:Drivers/CMSIS/Include/core_cm7.h **** #define FPU_FPCCR_HFRDY_Msk                (1UL << FPU_FPCCR_HFRDY_Pos)                   /*!< FPCC
1553:Drivers/CMSIS/Include/core_cm7.h **** 
1554:Drivers/CMSIS/Include/core_cm7.h **** #define FPU_FPCCR_THREAD_Pos                3U                                            /*!< FPCC
1555:Drivers/CMSIS/Include/core_cm7.h **** #define FPU_FPCCR_THREAD_Msk               (1UL << FPU_FPCCR_THREAD_Pos)                  /*!< FPCC
1556:Drivers/CMSIS/Include/core_cm7.h **** 
1557:Drivers/CMSIS/Include/core_cm7.h **** #define FPU_FPCCR_USER_Pos                  1U                                            /*!< FPCC
1558:Drivers/CMSIS/Include/core_cm7.h **** #define FPU_FPCCR_USER_Msk                 (1UL << FPU_FPCCR_USER_Pos)                    /*!< FPCC
1559:Drivers/CMSIS/Include/core_cm7.h **** 
1560:Drivers/CMSIS/Include/core_cm7.h **** #define FPU_FPCCR_LSPACT_Pos                0U                                            /*!< FPCC
1561:Drivers/CMSIS/Include/core_cm7.h **** #define FPU_FPCCR_LSPACT_Msk               (1UL /*<< FPU_FPCCR_LSPACT_Pos*/)              /*!< FPCC
1562:Drivers/CMSIS/Include/core_cm7.h **** 
1563:Drivers/CMSIS/Include/core_cm7.h **** /* Floating-Point Context Address Register Definitions */
1564:Drivers/CMSIS/Include/core_cm7.h **** #define FPU_FPCAR_ADDRESS_Pos               3U                                            /*!< FPCA
1565:Drivers/CMSIS/Include/core_cm7.h **** #define FPU_FPCAR_ADDRESS_Msk              (0x1FFFFFFFUL << FPU_FPCAR_ADDRESS_Pos)        /*!< FPCA
1566:Drivers/CMSIS/Include/core_cm7.h **** 
1567:Drivers/CMSIS/Include/core_cm7.h **** /* Floating-Point Default Status Control Register Definitions */
1568:Drivers/CMSIS/Include/core_cm7.h **** #define FPU_FPDSCR_AHP_Pos                 26U                                            /*!< FPDS
1569:Drivers/CMSIS/Include/core_cm7.h **** #define FPU_FPDSCR_AHP_Msk                 (1UL << FPU_FPDSCR_AHP_Pos)                    /*!< FPDS
1570:Drivers/CMSIS/Include/core_cm7.h **** 
1571:Drivers/CMSIS/Include/core_cm7.h **** #define FPU_FPDSCR_DN_Pos                  25U                                            /*!< FPDS
1572:Drivers/CMSIS/Include/core_cm7.h **** #define FPU_FPDSCR_DN_Msk                  (1UL << FPU_FPDSCR_DN_Pos)                     /*!< FPDS
1573:Drivers/CMSIS/Include/core_cm7.h **** 
1574:Drivers/CMSIS/Include/core_cm7.h **** #define FPU_FPDSCR_FZ_Pos                  24U                                            /*!< FPDS
1575:Drivers/CMSIS/Include/core_cm7.h **** #define FPU_FPDSCR_FZ_Msk                  (1UL << FPU_FPDSCR_FZ_Pos)                     /*!< FPDS
1576:Drivers/CMSIS/Include/core_cm7.h **** 
1577:Drivers/CMSIS/Include/core_cm7.h **** #define FPU_FPDSCR_RMode_Pos               22U                                            /*!< FPDS
1578:Drivers/CMSIS/Include/core_cm7.h **** #define FPU_FPDSCR_RMode_Msk               (3UL << FPU_FPDSCR_RMode_Pos)                  /*!< FPDS
1579:Drivers/CMSIS/Include/core_cm7.h **** 
1580:Drivers/CMSIS/Include/core_cm7.h **** /* Media and FP Feature Register 0 Definitions */
1581:Drivers/CMSIS/Include/core_cm7.h **** #define FPU_MVFR0_FP_rounding_modes_Pos    28U                                            /*!< MVFR
1582:Drivers/CMSIS/Include/core_cm7.h **** #define FPU_MVFR0_FP_rounding_modes_Msk    (0xFUL << FPU_MVFR0_FP_rounding_modes_Pos)     /*!< MVFR
1583:Drivers/CMSIS/Include/core_cm7.h **** 
1584:Drivers/CMSIS/Include/core_cm7.h **** #define FPU_MVFR0_Short_vectors_Pos        24U                                            /*!< MVFR
1585:Drivers/CMSIS/Include/core_cm7.h **** #define FPU_MVFR0_Short_vectors_Msk        (0xFUL << FPU_MVFR0_Short_vectors_Pos)         /*!< MVFR
1586:Drivers/CMSIS/Include/core_cm7.h **** 
1587:Drivers/CMSIS/Include/core_cm7.h **** #define FPU_MVFR0_Square_root_Pos          20U                                            /*!< MVFR
1588:Drivers/CMSIS/Include/core_cm7.h **** #define FPU_MVFR0_Square_root_Msk          (0xFUL << FPU_MVFR0_Square_root_Pos)           /*!< MVFR
1589:Drivers/CMSIS/Include/core_cm7.h **** 
1590:Drivers/CMSIS/Include/core_cm7.h **** #define FPU_MVFR0_Divide_Pos               16U                                            /*!< MVFR
ARM GAS  /var/folders/9y/n02fl3g16gnf7ppy14xghdy80000gn/T//ccscaFA7.s 			page 46


1591:Drivers/CMSIS/Include/core_cm7.h **** #define FPU_MVFR0_Divide_Msk               (0xFUL << FPU_MVFR0_Divide_Pos)                /*!< MVFR
1592:Drivers/CMSIS/Include/core_cm7.h **** 
1593:Drivers/CMSIS/Include/core_cm7.h **** #define FPU_MVFR0_FP_excep_trapping_Pos    12U                                            /*!< MVFR
1594:Drivers/CMSIS/Include/core_cm7.h **** #define FPU_MVFR0_FP_excep_trapping_Msk    (0xFUL << FPU_MVFR0_FP_excep_trapping_Pos)     /*!< MVFR
1595:Drivers/CMSIS/Include/core_cm7.h **** 
1596:Drivers/CMSIS/Include/core_cm7.h **** #define FPU_MVFR0_Double_precision_Pos      8U                                            /*!< MVFR
1597:Drivers/CMSIS/Include/core_cm7.h **** #define FPU_MVFR0_Double_precision_Msk     (0xFUL << FPU_MVFR0_Double_precision_Pos)      /*!< MVFR
1598:Drivers/CMSIS/Include/core_cm7.h **** 
1599:Drivers/CMSIS/Include/core_cm7.h **** #define FPU_MVFR0_Single_precision_Pos      4U                                            /*!< MVFR
1600:Drivers/CMSIS/Include/core_cm7.h **** #define FPU_MVFR0_Single_precision_Msk     (0xFUL << FPU_MVFR0_Single_precision_Pos)      /*!< MVFR
1601:Drivers/CMSIS/Include/core_cm7.h **** 
1602:Drivers/CMSIS/Include/core_cm7.h **** #define FPU_MVFR0_A_SIMD_registers_Pos      0U                                            /*!< MVFR
1603:Drivers/CMSIS/Include/core_cm7.h **** #define FPU_MVFR0_A_SIMD_registers_Msk     (0xFUL /*<< FPU_MVFR0_A_SIMD_registers_Pos*/)  /*!< MVFR
1604:Drivers/CMSIS/Include/core_cm7.h **** 
1605:Drivers/CMSIS/Include/core_cm7.h **** /* Media and FP Feature Register 1 Definitions */
1606:Drivers/CMSIS/Include/core_cm7.h **** #define FPU_MVFR1_FP_fused_MAC_Pos         28U                                            /*!< MVFR
1607:Drivers/CMSIS/Include/core_cm7.h **** #define FPU_MVFR1_FP_fused_MAC_Msk         (0xFUL << FPU_MVFR1_FP_fused_MAC_Pos)          /*!< MVFR
1608:Drivers/CMSIS/Include/core_cm7.h **** 
1609:Drivers/CMSIS/Include/core_cm7.h **** #define FPU_MVFR1_FP_HPFP_Pos              24U                                            /*!< MVFR
1610:Drivers/CMSIS/Include/core_cm7.h **** #define FPU_MVFR1_FP_HPFP_Msk              (0xFUL << FPU_MVFR1_FP_HPFP_Pos)               /*!< MVFR
1611:Drivers/CMSIS/Include/core_cm7.h **** 
1612:Drivers/CMSIS/Include/core_cm7.h **** #define FPU_MVFR1_D_NaN_mode_Pos            4U                                            /*!< MVFR
1613:Drivers/CMSIS/Include/core_cm7.h **** #define FPU_MVFR1_D_NaN_mode_Msk           (0xFUL << FPU_MVFR1_D_NaN_mode_Pos)            /*!< MVFR
1614:Drivers/CMSIS/Include/core_cm7.h **** 
1615:Drivers/CMSIS/Include/core_cm7.h **** #define FPU_MVFR1_FtZ_mode_Pos              0U                                            /*!< MVFR
1616:Drivers/CMSIS/Include/core_cm7.h **** #define FPU_MVFR1_FtZ_mode_Msk             (0xFUL /*<< FPU_MVFR1_FtZ_mode_Pos*/)          /*!< MVFR
1617:Drivers/CMSIS/Include/core_cm7.h **** 
1618:Drivers/CMSIS/Include/core_cm7.h **** /* Media and FP Feature Register 2 Definitions */
1619:Drivers/CMSIS/Include/core_cm7.h **** 
1620:Drivers/CMSIS/Include/core_cm7.h **** /*@} end of group CMSIS_FPU */
1621:Drivers/CMSIS/Include/core_cm7.h **** 
1622:Drivers/CMSIS/Include/core_cm7.h **** 
1623:Drivers/CMSIS/Include/core_cm7.h **** /**
1624:Drivers/CMSIS/Include/core_cm7.h ****   \ingroup  CMSIS_core_register
1625:Drivers/CMSIS/Include/core_cm7.h ****   \defgroup CMSIS_CoreDebug       Core Debug Registers (CoreDebug)
1626:Drivers/CMSIS/Include/core_cm7.h ****   \brief    Type definitions for the Core Debug Registers
1627:Drivers/CMSIS/Include/core_cm7.h ****   @{
1628:Drivers/CMSIS/Include/core_cm7.h ****  */
1629:Drivers/CMSIS/Include/core_cm7.h **** 
1630:Drivers/CMSIS/Include/core_cm7.h **** /**
1631:Drivers/CMSIS/Include/core_cm7.h ****   \brief  Structure type to access the Core Debug Register (CoreDebug).
1632:Drivers/CMSIS/Include/core_cm7.h ****  */
1633:Drivers/CMSIS/Include/core_cm7.h **** typedef struct
1634:Drivers/CMSIS/Include/core_cm7.h **** {
1635:Drivers/CMSIS/Include/core_cm7.h ****   __IOM uint32_t DHCSR;                  /*!< Offset: 0x000 (R/W)  Debug Halting Control and Status
1636:Drivers/CMSIS/Include/core_cm7.h ****   __OM  uint32_t DCRSR;                  /*!< Offset: 0x004 ( /W)  Debug Core Register Selector Reg
1637:Drivers/CMSIS/Include/core_cm7.h ****   __IOM uint32_t DCRDR;                  /*!< Offset: 0x008 (R/W)  Debug Core Register Data Registe
1638:Drivers/CMSIS/Include/core_cm7.h ****   __IOM uint32_t DEMCR;                  /*!< Offset: 0x00C (R/W)  Debug Exception and Monitor Cont
1639:Drivers/CMSIS/Include/core_cm7.h **** } CoreDebug_Type;
1640:Drivers/CMSIS/Include/core_cm7.h **** 
1641:Drivers/CMSIS/Include/core_cm7.h **** /* Debug Halting Control and Status Register Definitions */
1642:Drivers/CMSIS/Include/core_cm7.h **** #define CoreDebug_DHCSR_DBGKEY_Pos         16U                                            /*!< Core
1643:Drivers/CMSIS/Include/core_cm7.h **** #define CoreDebug_DHCSR_DBGKEY_Msk         (0xFFFFUL << CoreDebug_DHCSR_DBGKEY_Pos)       /*!< Core
1644:Drivers/CMSIS/Include/core_cm7.h **** 
1645:Drivers/CMSIS/Include/core_cm7.h **** #define CoreDebug_DHCSR_S_RESET_ST_Pos     25U                                            /*!< Core
1646:Drivers/CMSIS/Include/core_cm7.h **** #define CoreDebug_DHCSR_S_RESET_ST_Msk     (1UL << CoreDebug_DHCSR_S_RESET_ST_Pos)        /*!< Core
1647:Drivers/CMSIS/Include/core_cm7.h **** 
ARM GAS  /var/folders/9y/n02fl3g16gnf7ppy14xghdy80000gn/T//ccscaFA7.s 			page 47


1648:Drivers/CMSIS/Include/core_cm7.h **** #define CoreDebug_DHCSR_S_RETIRE_ST_Pos    24U                                            /*!< Core
1649:Drivers/CMSIS/Include/core_cm7.h **** #define CoreDebug_DHCSR_S_RETIRE_ST_Msk    (1UL << CoreDebug_DHCSR_S_RETIRE_ST_Pos)       /*!< Core
1650:Drivers/CMSIS/Include/core_cm7.h **** 
1651:Drivers/CMSIS/Include/core_cm7.h **** #define CoreDebug_DHCSR_S_LOCKUP_Pos       19U                                            /*!< Core
1652:Drivers/CMSIS/Include/core_cm7.h **** #define CoreDebug_DHCSR_S_LOCKUP_Msk       (1UL << CoreDebug_DHCSR_S_LOCKUP_Pos)          /*!< Core
1653:Drivers/CMSIS/Include/core_cm7.h **** 
1654:Drivers/CMSIS/Include/core_cm7.h **** #define CoreDebug_DHCSR_S_SLEEP_Pos        18U                                            /*!< Core
1655:Drivers/CMSIS/Include/core_cm7.h **** #define CoreDebug_DHCSR_S_SLEEP_Msk        (1UL << CoreDebug_DHCSR_S_SLEEP_Pos)           /*!< Core
1656:Drivers/CMSIS/Include/core_cm7.h **** 
1657:Drivers/CMSIS/Include/core_cm7.h **** #define CoreDebug_DHCSR_S_HALT_Pos         17U                                            /*!< Core
1658:Drivers/CMSIS/Include/core_cm7.h **** #define CoreDebug_DHCSR_S_HALT_Msk         (1UL << CoreDebug_DHCSR_S_HALT_Pos)            /*!< Core
1659:Drivers/CMSIS/Include/core_cm7.h **** 
1660:Drivers/CMSIS/Include/core_cm7.h **** #define CoreDebug_DHCSR_S_REGRDY_Pos       16U                                            /*!< Core
1661:Drivers/CMSIS/Include/core_cm7.h **** #define CoreDebug_DHCSR_S_REGRDY_Msk       (1UL << CoreDebug_DHCSR_S_REGRDY_Pos)          /*!< Core
1662:Drivers/CMSIS/Include/core_cm7.h **** 
1663:Drivers/CMSIS/Include/core_cm7.h **** #define CoreDebug_DHCSR_C_SNAPSTALL_Pos     5U                                            /*!< Core
1664:Drivers/CMSIS/Include/core_cm7.h **** #define CoreDebug_DHCSR_C_SNAPSTALL_Msk    (1UL << CoreDebug_DHCSR_C_SNAPSTALL_Pos)       /*!< Core
1665:Drivers/CMSIS/Include/core_cm7.h **** 
1666:Drivers/CMSIS/Include/core_cm7.h **** #define CoreDebug_DHCSR_C_MASKINTS_Pos      3U                                            /*!< Core
1667:Drivers/CMSIS/Include/core_cm7.h **** #define CoreDebug_DHCSR_C_MASKINTS_Msk     (1UL << CoreDebug_DHCSR_C_MASKINTS_Pos)        /*!< Core
1668:Drivers/CMSIS/Include/core_cm7.h **** 
1669:Drivers/CMSIS/Include/core_cm7.h **** #define CoreDebug_DHCSR_C_STEP_Pos          2U                                            /*!< Core
1670:Drivers/CMSIS/Include/core_cm7.h **** #define CoreDebug_DHCSR_C_STEP_Msk         (1UL << CoreDebug_DHCSR_C_STEP_Pos)            /*!< Core
1671:Drivers/CMSIS/Include/core_cm7.h **** 
1672:Drivers/CMSIS/Include/core_cm7.h **** #define CoreDebug_DHCSR_C_HALT_Pos          1U                                            /*!< Core
1673:Drivers/CMSIS/Include/core_cm7.h **** #define CoreDebug_DHCSR_C_HALT_Msk         (1UL << CoreDebug_DHCSR_C_HALT_Pos)            /*!< Core
1674:Drivers/CMSIS/Include/core_cm7.h **** 
1675:Drivers/CMSIS/Include/core_cm7.h **** #define CoreDebug_DHCSR_C_DEBUGEN_Pos       0U                                            /*!< Core
1676:Drivers/CMSIS/Include/core_cm7.h **** #define CoreDebug_DHCSR_C_DEBUGEN_Msk      (1UL /*<< CoreDebug_DHCSR_C_DEBUGEN_Pos*/)     /*!< Core
1677:Drivers/CMSIS/Include/core_cm7.h **** 
1678:Drivers/CMSIS/Include/core_cm7.h **** /* Debug Core Register Selector Register Definitions */
1679:Drivers/CMSIS/Include/core_cm7.h **** #define CoreDebug_DCRSR_REGWnR_Pos         16U                                            /*!< Core
1680:Drivers/CMSIS/Include/core_cm7.h **** #define CoreDebug_DCRSR_REGWnR_Msk         (1UL << CoreDebug_DCRSR_REGWnR_Pos)            /*!< Core
1681:Drivers/CMSIS/Include/core_cm7.h **** 
1682:Drivers/CMSIS/Include/core_cm7.h **** #define CoreDebug_DCRSR_REGSEL_Pos          0U                                            /*!< Core
1683:Drivers/CMSIS/Include/core_cm7.h **** #define CoreDebug_DCRSR_REGSEL_Msk         (0x1FUL /*<< CoreDebug_DCRSR_REGSEL_Pos*/)     /*!< Core
1684:Drivers/CMSIS/Include/core_cm7.h **** 
1685:Drivers/CMSIS/Include/core_cm7.h **** /* Debug Exception and Monitor Control Register Definitions */
1686:Drivers/CMSIS/Include/core_cm7.h **** #define CoreDebug_DEMCR_TRCENA_Pos         24U                                            /*!< Core
1687:Drivers/CMSIS/Include/core_cm7.h **** #define CoreDebug_DEMCR_TRCENA_Msk         (1UL << CoreDebug_DEMCR_TRCENA_Pos)            /*!< Core
1688:Drivers/CMSIS/Include/core_cm7.h **** 
1689:Drivers/CMSIS/Include/core_cm7.h **** #define CoreDebug_DEMCR_MON_REQ_Pos        19U                                            /*!< Core
1690:Drivers/CMSIS/Include/core_cm7.h **** #define CoreDebug_DEMCR_MON_REQ_Msk        (1UL << CoreDebug_DEMCR_MON_REQ_Pos)           /*!< Core
1691:Drivers/CMSIS/Include/core_cm7.h **** 
1692:Drivers/CMSIS/Include/core_cm7.h **** #define CoreDebug_DEMCR_MON_STEP_Pos       18U                                            /*!< Core
1693:Drivers/CMSIS/Include/core_cm7.h **** #define CoreDebug_DEMCR_MON_STEP_Msk       (1UL << CoreDebug_DEMCR_MON_STEP_Pos)          /*!< Core
1694:Drivers/CMSIS/Include/core_cm7.h **** 
1695:Drivers/CMSIS/Include/core_cm7.h **** #define CoreDebug_DEMCR_MON_PEND_Pos       17U                                            /*!< Core
1696:Drivers/CMSIS/Include/core_cm7.h **** #define CoreDebug_DEMCR_MON_PEND_Msk       (1UL << CoreDebug_DEMCR_MON_PEND_Pos)          /*!< Core
1697:Drivers/CMSIS/Include/core_cm7.h **** 
1698:Drivers/CMSIS/Include/core_cm7.h **** #define CoreDebug_DEMCR_MON_EN_Pos         16U                                            /*!< Core
1699:Drivers/CMSIS/Include/core_cm7.h **** #define CoreDebug_DEMCR_MON_EN_Msk         (1UL << CoreDebug_DEMCR_MON_EN_Pos)            /*!< Core
1700:Drivers/CMSIS/Include/core_cm7.h **** 
1701:Drivers/CMSIS/Include/core_cm7.h **** #define CoreDebug_DEMCR_VC_HARDERR_Pos     10U                                            /*!< Core
1702:Drivers/CMSIS/Include/core_cm7.h **** #define CoreDebug_DEMCR_VC_HARDERR_Msk     (1UL << CoreDebug_DEMCR_VC_HARDERR_Pos)        /*!< Core
1703:Drivers/CMSIS/Include/core_cm7.h **** 
1704:Drivers/CMSIS/Include/core_cm7.h **** #define CoreDebug_DEMCR_VC_INTERR_Pos       9U                                            /*!< Core
ARM GAS  /var/folders/9y/n02fl3g16gnf7ppy14xghdy80000gn/T//ccscaFA7.s 			page 48


1705:Drivers/CMSIS/Include/core_cm7.h **** #define CoreDebug_DEMCR_VC_INTERR_Msk      (1UL << CoreDebug_DEMCR_VC_INTERR_Pos)         /*!< Core
1706:Drivers/CMSIS/Include/core_cm7.h **** 
1707:Drivers/CMSIS/Include/core_cm7.h **** #define CoreDebug_DEMCR_VC_BUSERR_Pos       8U                                            /*!< Core
1708:Drivers/CMSIS/Include/core_cm7.h **** #define CoreDebug_DEMCR_VC_BUSERR_Msk      (1UL << CoreDebug_DEMCR_VC_BUSERR_Pos)         /*!< Core
1709:Drivers/CMSIS/Include/core_cm7.h **** 
1710:Drivers/CMSIS/Include/core_cm7.h **** #define CoreDebug_DEMCR_VC_STATERR_Pos      7U                                            /*!< Core
1711:Drivers/CMSIS/Include/core_cm7.h **** #define CoreDebug_DEMCR_VC_STATERR_Msk     (1UL << CoreDebug_DEMCR_VC_STATERR_Pos)        /*!< Core
1712:Drivers/CMSIS/Include/core_cm7.h **** 
1713:Drivers/CMSIS/Include/core_cm7.h **** #define CoreDebug_DEMCR_VC_CHKERR_Pos       6U                                            /*!< Core
1714:Drivers/CMSIS/Include/core_cm7.h **** #define CoreDebug_DEMCR_VC_CHKERR_Msk      (1UL << CoreDebug_DEMCR_VC_CHKERR_Pos)         /*!< Core
1715:Drivers/CMSIS/Include/core_cm7.h **** 
1716:Drivers/CMSIS/Include/core_cm7.h **** #define CoreDebug_DEMCR_VC_NOCPERR_Pos      5U                                            /*!< Core
1717:Drivers/CMSIS/Include/core_cm7.h **** #define CoreDebug_DEMCR_VC_NOCPERR_Msk     (1UL << CoreDebug_DEMCR_VC_NOCPERR_Pos)        /*!< Core
1718:Drivers/CMSIS/Include/core_cm7.h **** 
1719:Drivers/CMSIS/Include/core_cm7.h **** #define CoreDebug_DEMCR_VC_MMERR_Pos        4U                                            /*!< Core
1720:Drivers/CMSIS/Include/core_cm7.h **** #define CoreDebug_DEMCR_VC_MMERR_Msk       (1UL << CoreDebug_DEMCR_VC_MMERR_Pos)          /*!< Core
1721:Drivers/CMSIS/Include/core_cm7.h **** 
1722:Drivers/CMSIS/Include/core_cm7.h **** #define CoreDebug_DEMCR_VC_CORERESET_Pos    0U                                            /*!< Core
1723:Drivers/CMSIS/Include/core_cm7.h **** #define CoreDebug_DEMCR_VC_CORERESET_Msk   (1UL /*<< CoreDebug_DEMCR_VC_CORERESET_Pos*/)  /*!< Core
1724:Drivers/CMSIS/Include/core_cm7.h **** 
1725:Drivers/CMSIS/Include/core_cm7.h **** /*@} end of group CMSIS_CoreDebug */
1726:Drivers/CMSIS/Include/core_cm7.h **** 
1727:Drivers/CMSIS/Include/core_cm7.h **** 
1728:Drivers/CMSIS/Include/core_cm7.h **** /**
1729:Drivers/CMSIS/Include/core_cm7.h ****   \ingroup    CMSIS_core_register
1730:Drivers/CMSIS/Include/core_cm7.h ****   \defgroup   CMSIS_core_bitfield     Core register bit field macros
1731:Drivers/CMSIS/Include/core_cm7.h ****   \brief      Macros for use with bit field definitions (xxx_Pos, xxx_Msk).
1732:Drivers/CMSIS/Include/core_cm7.h ****   @{
1733:Drivers/CMSIS/Include/core_cm7.h ****  */
1734:Drivers/CMSIS/Include/core_cm7.h **** 
1735:Drivers/CMSIS/Include/core_cm7.h **** /**
1736:Drivers/CMSIS/Include/core_cm7.h ****   \brief   Mask and shift a bit field value for use in a register bit range.
1737:Drivers/CMSIS/Include/core_cm7.h ****   \param[in] field  Name of the register bit field.
1738:Drivers/CMSIS/Include/core_cm7.h ****   \param[in] value  Value of the bit field. This parameter is interpreted as an uint32_t type.
1739:Drivers/CMSIS/Include/core_cm7.h ****   \return           Masked and shifted value.
1740:Drivers/CMSIS/Include/core_cm7.h **** */
1741:Drivers/CMSIS/Include/core_cm7.h **** #define _VAL2FLD(field, value)    (((uint32_t)(value) << field ## _Pos) & field ## _Msk)
1742:Drivers/CMSIS/Include/core_cm7.h **** 
1743:Drivers/CMSIS/Include/core_cm7.h **** /**
1744:Drivers/CMSIS/Include/core_cm7.h ****   \brief     Mask and shift a register value to extract a bit filed value.
1745:Drivers/CMSIS/Include/core_cm7.h ****   \param[in] field  Name of the register bit field.
1746:Drivers/CMSIS/Include/core_cm7.h ****   \param[in] value  Value of register. This parameter is interpreted as an uint32_t type.
1747:Drivers/CMSIS/Include/core_cm7.h ****   \return           Masked and shifted bit field value.
1748:Drivers/CMSIS/Include/core_cm7.h **** */
1749:Drivers/CMSIS/Include/core_cm7.h **** #define _FLD2VAL(field, value)    (((uint32_t)(value) & field ## _Msk) >> field ## _Pos)
1750:Drivers/CMSIS/Include/core_cm7.h **** 
1751:Drivers/CMSIS/Include/core_cm7.h **** /*@} end of group CMSIS_core_bitfield */
1752:Drivers/CMSIS/Include/core_cm7.h **** 
1753:Drivers/CMSIS/Include/core_cm7.h **** 
1754:Drivers/CMSIS/Include/core_cm7.h **** /**
1755:Drivers/CMSIS/Include/core_cm7.h ****   \ingroup    CMSIS_core_register
1756:Drivers/CMSIS/Include/core_cm7.h ****   \defgroup   CMSIS_core_base     Core Definitions
1757:Drivers/CMSIS/Include/core_cm7.h ****   \brief      Definitions for base addresses, unions, and structures.
1758:Drivers/CMSIS/Include/core_cm7.h ****   @{
1759:Drivers/CMSIS/Include/core_cm7.h ****  */
1760:Drivers/CMSIS/Include/core_cm7.h **** 
1761:Drivers/CMSIS/Include/core_cm7.h **** /* Memory mapping of Core Hardware */
ARM GAS  /var/folders/9y/n02fl3g16gnf7ppy14xghdy80000gn/T//ccscaFA7.s 			page 49


1762:Drivers/CMSIS/Include/core_cm7.h **** #define SCS_BASE            (0xE000E000UL)                            /*!< System Control Space Bas
1763:Drivers/CMSIS/Include/core_cm7.h **** #define ITM_BASE            (0xE0000000UL)                            /*!< ITM Base Address */
1764:Drivers/CMSIS/Include/core_cm7.h **** #define DWT_BASE            (0xE0001000UL)                            /*!< DWT Base Address */
1765:Drivers/CMSIS/Include/core_cm7.h **** #define TPI_BASE            (0xE0040000UL)                            /*!< TPI Base Address */
1766:Drivers/CMSIS/Include/core_cm7.h **** #define CoreDebug_BASE      (0xE000EDF0UL)                            /*!< Core Debug Base Address 
1767:Drivers/CMSIS/Include/core_cm7.h **** #define SysTick_BASE        (SCS_BASE +  0x0010UL)                    /*!< SysTick Base Address */
1768:Drivers/CMSIS/Include/core_cm7.h **** #define NVIC_BASE           (SCS_BASE +  0x0100UL)                    /*!< NVIC Base Address */
1769:Drivers/CMSIS/Include/core_cm7.h **** #define SCB_BASE            (SCS_BASE +  0x0D00UL)                    /*!< System Control Block Bas
1770:Drivers/CMSIS/Include/core_cm7.h **** 
1771:Drivers/CMSIS/Include/core_cm7.h **** #define SCnSCB              ((SCnSCB_Type    *)     SCS_BASE      )   /*!< System control Register 
1772:Drivers/CMSIS/Include/core_cm7.h **** #define SCB                 ((SCB_Type       *)     SCB_BASE      )   /*!< SCB configuration struct
1773:Drivers/CMSIS/Include/core_cm7.h **** #define SysTick             ((SysTick_Type   *)     SysTick_BASE  )   /*!< SysTick configuration st
1774:Drivers/CMSIS/Include/core_cm7.h **** #define NVIC                ((NVIC_Type      *)     NVIC_BASE     )   /*!< NVIC configuration struc
1775:Drivers/CMSIS/Include/core_cm7.h **** #define ITM                 ((ITM_Type       *)     ITM_BASE      )   /*!< ITM configuration struct
1776:Drivers/CMSIS/Include/core_cm7.h **** #define DWT                 ((DWT_Type       *)     DWT_BASE      )   /*!< DWT configuration struct
1777:Drivers/CMSIS/Include/core_cm7.h **** #define TPI                 ((TPI_Type       *)     TPI_BASE      )   /*!< TPI configuration struct
1778:Drivers/CMSIS/Include/core_cm7.h **** #define CoreDebug           ((CoreDebug_Type *)     CoreDebug_BASE)   /*!< Core Debug configuration
1779:Drivers/CMSIS/Include/core_cm7.h **** 
1780:Drivers/CMSIS/Include/core_cm7.h **** #if defined (__MPU_PRESENT) && (__MPU_PRESENT == 1U)
1781:Drivers/CMSIS/Include/core_cm7.h ****   #define MPU_BASE          (SCS_BASE +  0x0D90UL)                    /*!< Memory Protection Unit *
1782:Drivers/CMSIS/Include/core_cm7.h ****   #define MPU               ((MPU_Type       *)     MPU_BASE      )   /*!< Memory Protection Unit *
1783:Drivers/CMSIS/Include/core_cm7.h **** #endif
1784:Drivers/CMSIS/Include/core_cm7.h **** 
1785:Drivers/CMSIS/Include/core_cm7.h **** #define FPU_BASE            (SCS_BASE +  0x0F30UL)                    /*!< Floating Point Unit */
1786:Drivers/CMSIS/Include/core_cm7.h **** #define FPU                 ((FPU_Type       *)     FPU_BASE      )   /*!< Floating Point Unit */
1787:Drivers/CMSIS/Include/core_cm7.h **** 
1788:Drivers/CMSIS/Include/core_cm7.h **** /*@} */
1789:Drivers/CMSIS/Include/core_cm7.h **** 
1790:Drivers/CMSIS/Include/core_cm7.h **** 
1791:Drivers/CMSIS/Include/core_cm7.h **** 
1792:Drivers/CMSIS/Include/core_cm7.h **** /*******************************************************************************
1793:Drivers/CMSIS/Include/core_cm7.h ****  *                Hardware Abstraction Layer
1794:Drivers/CMSIS/Include/core_cm7.h ****   Core Function Interface contains:
1795:Drivers/CMSIS/Include/core_cm7.h ****   - Core NVIC Functions
1796:Drivers/CMSIS/Include/core_cm7.h ****   - Core SysTick Functions
1797:Drivers/CMSIS/Include/core_cm7.h ****   - Core Debug Functions
1798:Drivers/CMSIS/Include/core_cm7.h ****   - Core Register Access Functions
1799:Drivers/CMSIS/Include/core_cm7.h ****  ******************************************************************************/
1800:Drivers/CMSIS/Include/core_cm7.h **** /**
1801:Drivers/CMSIS/Include/core_cm7.h ****   \defgroup CMSIS_Core_FunctionInterface Functions and Instructions Reference
1802:Drivers/CMSIS/Include/core_cm7.h **** */
1803:Drivers/CMSIS/Include/core_cm7.h **** 
1804:Drivers/CMSIS/Include/core_cm7.h **** 
1805:Drivers/CMSIS/Include/core_cm7.h **** 
1806:Drivers/CMSIS/Include/core_cm7.h **** /* ##########################   NVIC functions  #################################### */
1807:Drivers/CMSIS/Include/core_cm7.h **** /**
1808:Drivers/CMSIS/Include/core_cm7.h ****   \ingroup  CMSIS_Core_FunctionInterface
1809:Drivers/CMSIS/Include/core_cm7.h ****   \defgroup CMSIS_Core_NVICFunctions NVIC Functions
1810:Drivers/CMSIS/Include/core_cm7.h ****   \brief    Functions that manage interrupts and exceptions via the NVIC.
1811:Drivers/CMSIS/Include/core_cm7.h ****   @{
1812:Drivers/CMSIS/Include/core_cm7.h ****  */
1813:Drivers/CMSIS/Include/core_cm7.h **** 
1814:Drivers/CMSIS/Include/core_cm7.h **** #ifdef CMSIS_NVIC_VIRTUAL
1815:Drivers/CMSIS/Include/core_cm7.h ****   #ifndef CMSIS_NVIC_VIRTUAL_HEADER_FILE
1816:Drivers/CMSIS/Include/core_cm7.h ****     #define CMSIS_NVIC_VIRTUAL_HEADER_FILE "cmsis_nvic_virtual.h"
1817:Drivers/CMSIS/Include/core_cm7.h ****   #endif
1818:Drivers/CMSIS/Include/core_cm7.h ****   #include CMSIS_NVIC_VIRTUAL_HEADER_FILE
ARM GAS  /var/folders/9y/n02fl3g16gnf7ppy14xghdy80000gn/T//ccscaFA7.s 			page 50


1819:Drivers/CMSIS/Include/core_cm7.h **** #else
1820:Drivers/CMSIS/Include/core_cm7.h ****   #define NVIC_SetPriorityGrouping    __NVIC_SetPriorityGrouping
1821:Drivers/CMSIS/Include/core_cm7.h ****   #define NVIC_GetPriorityGrouping    __NVIC_GetPriorityGrouping
1822:Drivers/CMSIS/Include/core_cm7.h ****   #define NVIC_EnableIRQ              __NVIC_EnableIRQ
1823:Drivers/CMSIS/Include/core_cm7.h ****   #define NVIC_GetEnableIRQ           __NVIC_GetEnableIRQ
1824:Drivers/CMSIS/Include/core_cm7.h ****   #define NVIC_DisableIRQ             __NVIC_DisableIRQ
1825:Drivers/CMSIS/Include/core_cm7.h ****   #define NVIC_GetPendingIRQ          __NVIC_GetPendingIRQ
1826:Drivers/CMSIS/Include/core_cm7.h ****   #define NVIC_SetPendingIRQ          __NVIC_SetPendingIRQ
1827:Drivers/CMSIS/Include/core_cm7.h ****   #define NVIC_ClearPendingIRQ        __NVIC_ClearPendingIRQ
1828:Drivers/CMSIS/Include/core_cm7.h ****   #define NVIC_GetActive              __NVIC_GetActive
1829:Drivers/CMSIS/Include/core_cm7.h ****   #define NVIC_SetPriority            __NVIC_SetPriority
1830:Drivers/CMSIS/Include/core_cm7.h ****   #define NVIC_GetPriority            __NVIC_GetPriority
1831:Drivers/CMSIS/Include/core_cm7.h ****   #define NVIC_SystemReset            __NVIC_SystemReset
1832:Drivers/CMSIS/Include/core_cm7.h **** #endif /* CMSIS_NVIC_VIRTUAL */
1833:Drivers/CMSIS/Include/core_cm7.h **** 
1834:Drivers/CMSIS/Include/core_cm7.h **** #ifdef CMSIS_VECTAB_VIRTUAL
1835:Drivers/CMSIS/Include/core_cm7.h ****   #ifndef CMSIS_VECTAB_VIRTUAL_HEADER_FILE
1836:Drivers/CMSIS/Include/core_cm7.h ****     #define CMSIS_VECTAB_VIRTUAL_HEADER_FILE "cmsis_vectab_virtual.h"
1837:Drivers/CMSIS/Include/core_cm7.h ****   #endif
1838:Drivers/CMSIS/Include/core_cm7.h ****   #include CMSIS_VECTAB_VIRTUAL_HEADER_FILE
1839:Drivers/CMSIS/Include/core_cm7.h **** #else
1840:Drivers/CMSIS/Include/core_cm7.h ****   #define NVIC_SetVector              __NVIC_SetVector
1841:Drivers/CMSIS/Include/core_cm7.h ****   #define NVIC_GetVector              __NVIC_GetVector
1842:Drivers/CMSIS/Include/core_cm7.h **** #endif  /* (CMSIS_VECTAB_VIRTUAL) */
1843:Drivers/CMSIS/Include/core_cm7.h **** 
1844:Drivers/CMSIS/Include/core_cm7.h **** #define NVIC_USER_IRQ_OFFSET          16
1845:Drivers/CMSIS/Include/core_cm7.h **** 
1846:Drivers/CMSIS/Include/core_cm7.h **** 
1847:Drivers/CMSIS/Include/core_cm7.h **** /* The following EXC_RETURN values are saved the LR on exception entry */
1848:Drivers/CMSIS/Include/core_cm7.h **** #define EXC_RETURN_HANDLER         (0xFFFFFFF1UL)     /* return to Handler mode, uses MSP after ret
1849:Drivers/CMSIS/Include/core_cm7.h **** #define EXC_RETURN_THREAD_MSP      (0xFFFFFFF9UL)     /* return to Thread mode, uses MSP after retu
1850:Drivers/CMSIS/Include/core_cm7.h **** #define EXC_RETURN_THREAD_PSP      (0xFFFFFFFDUL)     /* return to Thread mode, uses PSP after retu
1851:Drivers/CMSIS/Include/core_cm7.h **** #define EXC_RETURN_HANDLER_FPU     (0xFFFFFFE1UL)     /* return to Handler mode, uses MSP after ret
1852:Drivers/CMSIS/Include/core_cm7.h **** #define EXC_RETURN_THREAD_MSP_FPU  (0xFFFFFFE9UL)     /* return to Thread mode, uses MSP after retu
1853:Drivers/CMSIS/Include/core_cm7.h **** #define EXC_RETURN_THREAD_PSP_FPU  (0xFFFFFFEDUL)     /* return to Thread mode, uses PSP after retu
1854:Drivers/CMSIS/Include/core_cm7.h **** 
1855:Drivers/CMSIS/Include/core_cm7.h **** 
1856:Drivers/CMSIS/Include/core_cm7.h **** /**
1857:Drivers/CMSIS/Include/core_cm7.h ****   \brief   Set Priority Grouping
1858:Drivers/CMSIS/Include/core_cm7.h ****   \details Sets the priority grouping field using the required unlock sequence.
1859:Drivers/CMSIS/Include/core_cm7.h ****            The parameter PriorityGroup is assigned to the field SCB->AIRCR [10:8] PRIGROUP field.
1860:Drivers/CMSIS/Include/core_cm7.h ****            Only values from 0..7 are used.
1861:Drivers/CMSIS/Include/core_cm7.h ****            In case of a conflict between priority grouping and available
1862:Drivers/CMSIS/Include/core_cm7.h ****            priority bits (__NVIC_PRIO_BITS), the smallest possible priority group is set.
1863:Drivers/CMSIS/Include/core_cm7.h ****   \param [in]      PriorityGroup  Priority grouping field.
1864:Drivers/CMSIS/Include/core_cm7.h ****  */
1865:Drivers/CMSIS/Include/core_cm7.h **** __STATIC_INLINE void __NVIC_SetPriorityGrouping(uint32_t PriorityGroup)
1866:Drivers/CMSIS/Include/core_cm7.h **** {
1867:Drivers/CMSIS/Include/core_cm7.h ****   uint32_t reg_value;
1868:Drivers/CMSIS/Include/core_cm7.h ****   uint32_t PriorityGroupTmp = (PriorityGroup & (uint32_t)0x07UL);             /* only values 0..7 a
1869:Drivers/CMSIS/Include/core_cm7.h **** 
1870:Drivers/CMSIS/Include/core_cm7.h ****   reg_value  =  SCB->AIRCR;                                                   /* read old register 
1871:Drivers/CMSIS/Include/core_cm7.h ****   reg_value &= ~((uint32_t)(SCB_AIRCR_VECTKEY_Msk | SCB_AIRCR_PRIGROUP_Msk)); /* clear bits to chan
1872:Drivers/CMSIS/Include/core_cm7.h ****   reg_value  =  (reg_value                                   |
1873:Drivers/CMSIS/Include/core_cm7.h ****                 ((uint32_t)0x5FAUL << SCB_AIRCR_VECTKEY_Pos) |
1874:Drivers/CMSIS/Include/core_cm7.h ****                 (PriorityGroupTmp << SCB_AIRCR_PRIGROUP_Pos)  );              /* Insert write key a
1875:Drivers/CMSIS/Include/core_cm7.h ****   SCB->AIRCR =  reg_value;
ARM GAS  /var/folders/9y/n02fl3g16gnf7ppy14xghdy80000gn/T//ccscaFA7.s 			page 51


1876:Drivers/CMSIS/Include/core_cm7.h **** }
1877:Drivers/CMSIS/Include/core_cm7.h **** 
1878:Drivers/CMSIS/Include/core_cm7.h **** 
1879:Drivers/CMSIS/Include/core_cm7.h **** /**
1880:Drivers/CMSIS/Include/core_cm7.h ****   \brief   Get Priority Grouping
1881:Drivers/CMSIS/Include/core_cm7.h ****   \details Reads the priority grouping field from the NVIC Interrupt Controller.
1882:Drivers/CMSIS/Include/core_cm7.h ****   \return                Priority grouping field (SCB->AIRCR [10:8] PRIGROUP field).
1883:Drivers/CMSIS/Include/core_cm7.h ****  */
1884:Drivers/CMSIS/Include/core_cm7.h **** __STATIC_INLINE uint32_t __NVIC_GetPriorityGrouping(void)
1885:Drivers/CMSIS/Include/core_cm7.h **** {
1886:Drivers/CMSIS/Include/core_cm7.h ****   return ((uint32_t)((SCB->AIRCR & SCB_AIRCR_PRIGROUP_Msk) >> SCB_AIRCR_PRIGROUP_Pos));
1887:Drivers/CMSIS/Include/core_cm7.h **** }
1888:Drivers/CMSIS/Include/core_cm7.h **** 
1889:Drivers/CMSIS/Include/core_cm7.h **** 
1890:Drivers/CMSIS/Include/core_cm7.h **** /**
1891:Drivers/CMSIS/Include/core_cm7.h ****   \brief   Enable Interrupt
1892:Drivers/CMSIS/Include/core_cm7.h ****   \details Enables a device specific interrupt in the NVIC interrupt controller.
1893:Drivers/CMSIS/Include/core_cm7.h ****   \param [in]      IRQn  Device specific interrupt number.
1894:Drivers/CMSIS/Include/core_cm7.h ****   \note    IRQn must not be negative.
1895:Drivers/CMSIS/Include/core_cm7.h ****  */
1896:Drivers/CMSIS/Include/core_cm7.h **** __STATIC_INLINE void __NVIC_EnableIRQ(IRQn_Type IRQn)
1897:Drivers/CMSIS/Include/core_cm7.h **** {
1898:Drivers/CMSIS/Include/core_cm7.h ****   if ((int32_t)(IRQn) >= 0)
1899:Drivers/CMSIS/Include/core_cm7.h ****   {
1900:Drivers/CMSIS/Include/core_cm7.h ****     NVIC->ISER[(((uint32_t)IRQn) >> 5UL)] = (uint32_t)(1UL << (((uint32_t)IRQn) & 0x1FUL));
1901:Drivers/CMSIS/Include/core_cm7.h ****   }
1902:Drivers/CMSIS/Include/core_cm7.h **** }
1903:Drivers/CMSIS/Include/core_cm7.h **** 
1904:Drivers/CMSIS/Include/core_cm7.h **** 
1905:Drivers/CMSIS/Include/core_cm7.h **** /**
1906:Drivers/CMSIS/Include/core_cm7.h ****   \brief   Get Interrupt Enable status
1907:Drivers/CMSIS/Include/core_cm7.h ****   \details Returns a device specific interrupt enable status from the NVIC interrupt controller.
1908:Drivers/CMSIS/Include/core_cm7.h ****   \param [in]      IRQn  Device specific interrupt number.
1909:Drivers/CMSIS/Include/core_cm7.h ****   \return             0  Interrupt is not enabled.
1910:Drivers/CMSIS/Include/core_cm7.h ****   \return             1  Interrupt is enabled.
1911:Drivers/CMSIS/Include/core_cm7.h ****   \note    IRQn must not be negative.
1912:Drivers/CMSIS/Include/core_cm7.h ****  */
1913:Drivers/CMSIS/Include/core_cm7.h **** __STATIC_INLINE uint32_t __NVIC_GetEnableIRQ(IRQn_Type IRQn)
1914:Drivers/CMSIS/Include/core_cm7.h **** {
1915:Drivers/CMSIS/Include/core_cm7.h ****   if ((int32_t)(IRQn) >= 0)
1916:Drivers/CMSIS/Include/core_cm7.h ****   {
1917:Drivers/CMSIS/Include/core_cm7.h ****     return((uint32_t)(((NVIC->ISER[(((uint32_t)IRQn) >> 5UL)] & (1UL << (((uint32_t)IRQn) & 0x1FUL)
1918:Drivers/CMSIS/Include/core_cm7.h ****   }
1919:Drivers/CMSIS/Include/core_cm7.h ****   else
1920:Drivers/CMSIS/Include/core_cm7.h ****   {
1921:Drivers/CMSIS/Include/core_cm7.h ****     return(0U);
1922:Drivers/CMSIS/Include/core_cm7.h ****   }
1923:Drivers/CMSIS/Include/core_cm7.h **** }
1924:Drivers/CMSIS/Include/core_cm7.h **** 
1925:Drivers/CMSIS/Include/core_cm7.h **** 
1926:Drivers/CMSIS/Include/core_cm7.h **** /**
1927:Drivers/CMSIS/Include/core_cm7.h ****   \brief   Disable Interrupt
1928:Drivers/CMSIS/Include/core_cm7.h ****   \details Disables a device specific interrupt in the NVIC interrupt controller.
1929:Drivers/CMSIS/Include/core_cm7.h ****   \param [in]      IRQn  Device specific interrupt number.
1930:Drivers/CMSIS/Include/core_cm7.h ****   \note    IRQn must not be negative.
1931:Drivers/CMSIS/Include/core_cm7.h ****  */
1932:Drivers/CMSIS/Include/core_cm7.h **** __STATIC_INLINE void __NVIC_DisableIRQ(IRQn_Type IRQn)
ARM GAS  /var/folders/9y/n02fl3g16gnf7ppy14xghdy80000gn/T//ccscaFA7.s 			page 52


1933:Drivers/CMSIS/Include/core_cm7.h **** {
1934:Drivers/CMSIS/Include/core_cm7.h ****   if ((int32_t)(IRQn) >= 0)
1935:Drivers/CMSIS/Include/core_cm7.h ****   {
1936:Drivers/CMSIS/Include/core_cm7.h ****     NVIC->ICER[(((uint32_t)IRQn) >> 5UL)] = (uint32_t)(1UL << (((uint32_t)IRQn) & 0x1FUL));
1937:Drivers/CMSIS/Include/core_cm7.h ****     __DSB();
1938:Drivers/CMSIS/Include/core_cm7.h ****     __ISB();
1939:Drivers/CMSIS/Include/core_cm7.h ****   }
1940:Drivers/CMSIS/Include/core_cm7.h **** }
1941:Drivers/CMSIS/Include/core_cm7.h **** 
1942:Drivers/CMSIS/Include/core_cm7.h **** 
1943:Drivers/CMSIS/Include/core_cm7.h **** /**
1944:Drivers/CMSIS/Include/core_cm7.h ****   \brief   Get Pending Interrupt
1945:Drivers/CMSIS/Include/core_cm7.h ****   \details Reads the NVIC pending register and returns the pending bit for the specified device spe
1946:Drivers/CMSIS/Include/core_cm7.h ****   \param [in]      IRQn  Device specific interrupt number.
1947:Drivers/CMSIS/Include/core_cm7.h ****   \return             0  Interrupt status is not pending.
1948:Drivers/CMSIS/Include/core_cm7.h ****   \return             1  Interrupt status is pending.
1949:Drivers/CMSIS/Include/core_cm7.h ****   \note    IRQn must not be negative.
1950:Drivers/CMSIS/Include/core_cm7.h ****  */
1951:Drivers/CMSIS/Include/core_cm7.h **** __STATIC_INLINE uint32_t __NVIC_GetPendingIRQ(IRQn_Type IRQn)
1952:Drivers/CMSIS/Include/core_cm7.h **** {
1953:Drivers/CMSIS/Include/core_cm7.h ****   if ((int32_t)(IRQn) >= 0)
1954:Drivers/CMSIS/Include/core_cm7.h ****   {
1955:Drivers/CMSIS/Include/core_cm7.h ****     return((uint32_t)(((NVIC->ISPR[(((uint32_t)IRQn) >> 5UL)] & (1UL << (((uint32_t)IRQn) & 0x1FUL)
1956:Drivers/CMSIS/Include/core_cm7.h ****   }
1957:Drivers/CMSIS/Include/core_cm7.h ****   else
1958:Drivers/CMSIS/Include/core_cm7.h ****   {
1959:Drivers/CMSIS/Include/core_cm7.h ****     return(0U);
1960:Drivers/CMSIS/Include/core_cm7.h ****   }
1961:Drivers/CMSIS/Include/core_cm7.h **** }
1962:Drivers/CMSIS/Include/core_cm7.h **** 
1963:Drivers/CMSIS/Include/core_cm7.h **** 
1964:Drivers/CMSIS/Include/core_cm7.h **** /**
1965:Drivers/CMSIS/Include/core_cm7.h ****   \brief   Set Pending Interrupt
1966:Drivers/CMSIS/Include/core_cm7.h ****   \details Sets the pending bit of a device specific interrupt in the NVIC pending register.
1967:Drivers/CMSIS/Include/core_cm7.h ****   \param [in]      IRQn  Device specific interrupt number.
1968:Drivers/CMSIS/Include/core_cm7.h ****   \note    IRQn must not be negative.
1969:Drivers/CMSIS/Include/core_cm7.h ****  */
1970:Drivers/CMSIS/Include/core_cm7.h **** __STATIC_INLINE void __NVIC_SetPendingIRQ(IRQn_Type IRQn)
1971:Drivers/CMSIS/Include/core_cm7.h **** {
1972:Drivers/CMSIS/Include/core_cm7.h ****   if ((int32_t)(IRQn) >= 0)
1973:Drivers/CMSIS/Include/core_cm7.h ****   {
1974:Drivers/CMSIS/Include/core_cm7.h ****     NVIC->ISPR[(((uint32_t)IRQn) >> 5UL)] = (uint32_t)(1UL << (((uint32_t)IRQn) & 0x1FUL));
1975:Drivers/CMSIS/Include/core_cm7.h ****   }
1976:Drivers/CMSIS/Include/core_cm7.h **** }
1977:Drivers/CMSIS/Include/core_cm7.h **** 
1978:Drivers/CMSIS/Include/core_cm7.h **** 
1979:Drivers/CMSIS/Include/core_cm7.h **** /**
1980:Drivers/CMSIS/Include/core_cm7.h ****   \brief   Clear Pending Interrupt
1981:Drivers/CMSIS/Include/core_cm7.h ****   \details Clears the pending bit of a device specific interrupt in the NVIC pending register.
1982:Drivers/CMSIS/Include/core_cm7.h ****   \param [in]      IRQn  Device specific interrupt number.
1983:Drivers/CMSIS/Include/core_cm7.h ****   \note    IRQn must not be negative.
1984:Drivers/CMSIS/Include/core_cm7.h ****  */
1985:Drivers/CMSIS/Include/core_cm7.h **** __STATIC_INLINE void __NVIC_ClearPendingIRQ(IRQn_Type IRQn)
1986:Drivers/CMSIS/Include/core_cm7.h **** {
1987:Drivers/CMSIS/Include/core_cm7.h ****   if ((int32_t)(IRQn) >= 0)
1988:Drivers/CMSIS/Include/core_cm7.h ****   {
1989:Drivers/CMSIS/Include/core_cm7.h ****     NVIC->ICPR[(((uint32_t)IRQn) >> 5UL)] = (uint32_t)(1UL << (((uint32_t)IRQn) & 0x1FUL));
ARM GAS  /var/folders/9y/n02fl3g16gnf7ppy14xghdy80000gn/T//ccscaFA7.s 			page 53


1990:Drivers/CMSIS/Include/core_cm7.h ****   }
1991:Drivers/CMSIS/Include/core_cm7.h **** }
1992:Drivers/CMSIS/Include/core_cm7.h **** 
1993:Drivers/CMSIS/Include/core_cm7.h **** 
1994:Drivers/CMSIS/Include/core_cm7.h **** /**
1995:Drivers/CMSIS/Include/core_cm7.h ****   \brief   Get Active Interrupt
1996:Drivers/CMSIS/Include/core_cm7.h ****   \details Reads the active register in the NVIC and returns the active bit for the device specific
1997:Drivers/CMSIS/Include/core_cm7.h ****   \param [in]      IRQn  Device specific interrupt number.
1998:Drivers/CMSIS/Include/core_cm7.h ****   \return             0  Interrupt status is not active.
1999:Drivers/CMSIS/Include/core_cm7.h ****   \return             1  Interrupt status is active.
2000:Drivers/CMSIS/Include/core_cm7.h ****   \note    IRQn must not be negative.
2001:Drivers/CMSIS/Include/core_cm7.h ****  */
2002:Drivers/CMSIS/Include/core_cm7.h **** __STATIC_INLINE uint32_t __NVIC_GetActive(IRQn_Type IRQn)
2003:Drivers/CMSIS/Include/core_cm7.h **** {
2004:Drivers/CMSIS/Include/core_cm7.h ****   if ((int32_t)(IRQn) >= 0)
2005:Drivers/CMSIS/Include/core_cm7.h ****   {
2006:Drivers/CMSIS/Include/core_cm7.h ****     return((uint32_t)(((NVIC->IABR[(((uint32_t)IRQn) >> 5UL)] & (1UL << (((uint32_t)IRQn) & 0x1FUL)
2007:Drivers/CMSIS/Include/core_cm7.h ****   }
2008:Drivers/CMSIS/Include/core_cm7.h ****   else
2009:Drivers/CMSIS/Include/core_cm7.h ****   {
2010:Drivers/CMSIS/Include/core_cm7.h ****     return(0U);
2011:Drivers/CMSIS/Include/core_cm7.h ****   }
2012:Drivers/CMSIS/Include/core_cm7.h **** }
2013:Drivers/CMSIS/Include/core_cm7.h **** 
2014:Drivers/CMSIS/Include/core_cm7.h **** 
2015:Drivers/CMSIS/Include/core_cm7.h **** /**
2016:Drivers/CMSIS/Include/core_cm7.h ****   \brief   Set Interrupt Priority
2017:Drivers/CMSIS/Include/core_cm7.h ****   \details Sets the priority of a device specific interrupt or a processor exception.
2018:Drivers/CMSIS/Include/core_cm7.h ****            The interrupt number can be positive to specify a device specific interrupt,
2019:Drivers/CMSIS/Include/core_cm7.h ****            or negative to specify a processor exception.
2020:Drivers/CMSIS/Include/core_cm7.h ****   \param [in]      IRQn  Interrupt number.
2021:Drivers/CMSIS/Include/core_cm7.h ****   \param [in]  priority  Priority to set.
2022:Drivers/CMSIS/Include/core_cm7.h ****   \note    The priority cannot be set for every processor exception.
2023:Drivers/CMSIS/Include/core_cm7.h ****  */
2024:Drivers/CMSIS/Include/core_cm7.h **** __STATIC_INLINE void __NVIC_SetPriority(IRQn_Type IRQn, uint32_t priority)
2025:Drivers/CMSIS/Include/core_cm7.h **** {
2026:Drivers/CMSIS/Include/core_cm7.h ****   if ((int32_t)(IRQn) >= 0)
2027:Drivers/CMSIS/Include/core_cm7.h ****   {
2028:Drivers/CMSIS/Include/core_cm7.h ****     NVIC->IP[((uint32_t)IRQn)]                = (uint8_t)((priority << (8U - __NVIC_PRIO_BITS)) & (
2029:Drivers/CMSIS/Include/core_cm7.h ****   }
2030:Drivers/CMSIS/Include/core_cm7.h ****   else
2031:Drivers/CMSIS/Include/core_cm7.h ****   {
2032:Drivers/CMSIS/Include/core_cm7.h ****     SCB->SHPR[(((uint32_t)IRQn) & 0xFUL)-4UL] = (uint8_t)((priority << (8U - __NVIC_PRIO_BITS)) & (
2033:Drivers/CMSIS/Include/core_cm7.h ****   }
2034:Drivers/CMSIS/Include/core_cm7.h **** }
